GAS LISTING /tmp/cc7uAgBF.s 			page 1


   1              		.file	"_sem.cpp"
   2              		.option pic
   3              		.option norelax
   4              		.text
   5              	.Ltext0:
   6              		.align	2
   7              		.globl	_ZN4_sem5blockEv
   9              	_ZN4_sem5blockEv:
  10              	.LFB31:
  11              		.file 1 "src/_sem.cpp"
   1:src/_sem.cpp  **** //
   2:src/_sem.cpp  **** // Created by os on 6/23/23.
   3:src/_sem.cpp  **** //
   4:src/_sem.cpp  **** 
   5:src/_sem.cpp  **** #include "../h/_sem.hpp"
   6:src/_sem.cpp  **** 
   7:src/_sem.cpp  **** int _sem::wait() {
   8:src/_sem.cpp  ****     if(closed) return -1;
   9:src/_sem.cpp  ****     if(--val<0) block();
  10:src/_sem.cpp  ****     return 0;
  11:src/_sem.cpp  **** }
  12:src/_sem.cpp  **** 
  13:src/_sem.cpp  **** int _sem::signal() {
  14:src/_sem.cpp  ****     if(closed) return -1;
  15:src/_sem.cpp  ****     if(++val <= 0) unblock();
  16:src/_sem.cpp  ****     return 0;
  17:src/_sem.cpp  **** }
  18:src/_sem.cpp  **** 
  19:src/_sem.cpp  **** void _sem::block() {
  12              		.loc 1 19 20
  13              		.cfi_startproc
  14              	.LVL0:
  15 0000 130101FE 		addi	sp,sp,-32
  16              		.cfi_def_cfa_offset 32
  17 0004 233C1100 		sd	ra,24(sp)
  18 0008 23388100 		sd	s0,16(sp)
  19 000c 23349100 		sd	s1,8(sp)
  20              		.cfi_offset 1, -8
  21              		.cfi_offset 8, -16
  22              		.cfi_offset 9, -24
  23 0010 13040102 		addi	s0,sp,32
  24              		.cfi_def_cfa 8, 0
  20:src/_sem.cpp  ****     // Adding the running thread to a blocked list by a FIFO mechanism
  21:src/_sem.cpp  ****     this->blocked.addLast(TCB::running);
  25              		.loc 1 21 5
  26              		.loc 1 21 26 is_stmt 0
  27 0014 97040000 		la	s1,_ZN3TCB7runningE
  27      83B40400 
  28 001c 83B50400 		ld	a1,0(s1)
  29 0020 13058500 		addi	a0,a0,8
  30              	.LVL1:
  31 0024 97000000 		call	_ZN4List7addLastEP3TCB@plt
  31      E7800000 
  32              	.LVL2:
  22:src/_sem.cpp  **** 
  23:src/_sem.cpp  ****     // Blocking
  24:src/_sem.cpp  ****     TCB::running->setBlocked(true);
GAS LISTING /tmp/cc7uAgBF.s 			page 2


  33              		.loc 1 24 5 is_stmt 1
  34              		.loc 1 24 29 is_stmt 0
  35 002c 83B70400 		ld	a5,0(s1)
  36              	.LVL3:
  37              	.LBB8:
  38              	.LBB9:
  39              		.file 2 "src/../h/TCB.hpp"
   1:src/../h/TCB.hpp **** //
   2:src/../h/TCB.hpp **** // Created by os on 6/20/23.
   3:src/../h/TCB.hpp **** //
   4:src/../h/TCB.hpp **** 
   5:src/../h/TCB.hpp **** #ifndef PROJECT_BASE_V1_1_TCB_HPP
   6:src/../h/TCB.hpp **** #define PROJECT_BASE_V1_1_TCB_HPP
   7:src/../h/TCB.hpp **** 
   8:src/../h/TCB.hpp **** #include "../lib/hw.h"
   9:src/../h/TCB.hpp **** #include "syscall_c.hpp"
  10:src/../h/TCB.hpp **** #include "../h/Scheduler.hpp"
  11:src/../h/TCB.hpp **** #include "list.hpp"
  12:src/../h/TCB.hpp **** 
  13:src/../h/TCB.hpp **** // ideja za klasu preuzeta sa vezbi
  14:src/../h/TCB.hpp **** class TCB {
  15:src/../h/TCB.hpp **** public:
  16:src/../h/TCB.hpp ****     TCB* next;
  17:src/../h/TCB.hpp ****     enum State{FINISHED, RUNNING, BLOCKED, SLEEPING};
  18:src/../h/TCB.hpp ****     using Body = void(*)(void*);
  19:src/../h/TCB.hpp ****     using Argument = void*;
  20:src/../h/TCB.hpp **** 
  21:src/../h/TCB.hpp ****     static TCB* createThread(Body body, Argument argument, uint8* st);
  22:src/../h/TCB.hpp **** 
  23:src/../h/TCB.hpp ****     // Finished
  24:src/../h/TCB.hpp ****     bool isFinished() const{ return this->state == FINISHED; }
  25:src/../h/TCB.hpp ****     void setFinished(bool finished){ this->state = finished? FINISHED:RUNNING; }
  26:src/../h/TCB.hpp **** 
  27:src/../h/TCB.hpp ****     // Blocked
  28:src/../h/TCB.hpp ****     bool isBlocked() const { return this->state == BLOCKED; }
  29:src/../h/TCB.hpp ****     void setBlocked(bool blocked) { this->state = blocked?BLOCKED:RUNNING; }
  40              		.loc 2 29 37 is_stmt 1
  41              		.loc 2 29 49 is_stmt 0
  42 0030 13072000 		li	a4,2
  43 0034 23A4E702 		sw	a4,40(a5)
  44              	.LVL4:
  45              	.LBE9:
  46              	.LBE8:
  25:src/_sem.cpp  ****     TCB::yield();
  47              		.loc 1 25 5 is_stmt 1
  48              		.loc 1 25 15 is_stmt 0
  49 0038 97000000 		call	_ZN3TCB5yieldEv@plt
  49      E7800000 
  50              	.LVL5:
  26:src/_sem.cpp  **** }
  51              		.loc 1 26 1
  52 0040 83308101 		ld	ra,24(sp)
  53              		.cfi_restore 1
  54 0044 03340101 		ld	s0,16(sp)
  55              		.cfi_restore 8
  56              		.cfi_def_cfa 2, 32
  57 0048 83348100 		ld	s1,8(sp)
GAS LISTING /tmp/cc7uAgBF.s 			page 3


  58              		.cfi_restore 9
  59 004c 13010102 		addi	sp,sp,32
  60              		.cfi_def_cfa_offset 0
  61 0050 67800000 		jr	ra
  62              		.cfi_endproc
  63              	.LFE31:
  65              		.align	2
  66              		.globl	_ZN4_sem4waitEv
  68              	_ZN4_sem4waitEv:
  69              	.LFB29:
   7:src/_sem.cpp  ****     if(closed) return -1;
  70              		.loc 1 7 18 is_stmt 1
  71              		.cfi_startproc
  72              	.LVL6:
   8:src/_sem.cpp  ****     if(--val<0) block();
  73              		.loc 1 8 5
   8:src/_sem.cpp  ****     if(--val<0) block();
  74              		.loc 1 8 8 is_stmt 0
  75 0054 83474500 		lbu	a5,4(a0)
   8:src/_sem.cpp  ****     if(--val<0) block();
  76              		.loc 1 8 5
  77 0058 63960704 		bnez	a5,.L5
   9:src/_sem.cpp  ****     return 0;
  78              		.loc 1 9 5 is_stmt 1
   9:src/_sem.cpp  ****     return 0;
  79              		.loc 1 9 10 is_stmt 0
  80 005c 83270500 		lw	a5,0(a0)
   9:src/_sem.cpp  ****     return 0;
  81              		.loc 1 9 8
  82 0060 9B87F7FF 		addiw	a5,a5,-1
   9:src/_sem.cpp  ****     return 0;
  83              		.loc 1 9 13
  84 0064 2320F500 		sw	a5,0(a0)
   9:src/_sem.cpp  ****     return 0;
  85              		.loc 1 9 5
  86 0068 13970702 		slli	a4,a5,32
  87 006c 63460700 		bltz	a4,.L11
  10:src/_sem.cpp  **** }
  88              		.loc 1 10 12
  89 0070 13050000 		li	a0,0
  90              	.LVL7:
  11:src/_sem.cpp  **** 
  91              		.loc 1 11 1
  92 0074 67800000 		ret
  93              	.LVL8:
  94              	.L11:
   7:src/_sem.cpp  ****     if(closed) return -1;
  95              		.loc 1 7 18 discriminator 1
  96 0078 130101FF 		addi	sp,sp,-16
  97              		.cfi_def_cfa_offset 16
  98 007c 23341100 		sd	ra,8(sp)
  99 0080 23308100 		sd	s0,0(sp)
 100              		.cfi_offset 1, -8
 101              		.cfi_offset 8, -16
 102 0084 13040101 		addi	s0,sp,16
 103              		.cfi_def_cfa 8, 0
   9:src/_sem.cpp  ****     return 0;
GAS LISTING /tmp/cc7uAgBF.s 			page 4


 104              		.loc 1 9 17 is_stmt 1 discriminator 1
   9:src/_sem.cpp  ****     return 0;
 105              		.loc 1 9 22 is_stmt 0 discriminator 1
 106 0088 97000000 		call	_ZN4_sem5blockEv
 106      E7800000 
 107              	.LVL9:
  10:src/_sem.cpp  **** }
 108              		.loc 1 10 12 discriminator 1
 109 0090 13050000 		li	a0,0
  11:src/_sem.cpp  **** 
 110              		.loc 1 11 1 discriminator 1
 111 0094 83308100 		ld	ra,8(sp)
 112              		.cfi_restore 1
 113 0098 03340100 		ld	s0,0(sp)
 114              		.cfi_restore 8
 115              		.cfi_def_cfa 2, 16
 116 009c 13010101 		addi	sp,sp,16
 117              		.cfi_def_cfa_offset 0
 118 00a0 67800000 		jr	ra
 119              	.LVL10:
 120              	.L5:
   8:src/_sem.cpp  ****     if(--val<0) block();
 121              		.loc 1 8 24
 122 00a4 1305F0FF 		li	a0,-1
 123              	.LVL11:
 124 00a8 67800000 		ret
 125              		.cfi_endproc
 126              	.LFE29:
 128              		.align	2
 129              		.globl	_ZN4_sem7unblockEv
 131              	_ZN4_sem7unblockEv:
 132              	.LFB32:
  27:src/_sem.cpp  **** 
  28:src/_sem.cpp  **** void _sem::unblock(){
 133              		.loc 1 28 21 is_stmt 1
 134              		.cfi_startproc
 135              	.LVL12:
 136 00ac 130101FF 		addi	sp,sp,-16
 137              		.cfi_def_cfa_offset 16
 138 00b0 23341100 		sd	ra,8(sp)
 139 00b4 23308100 		sd	s0,0(sp)
 140              		.cfi_offset 1, -8
 141              		.cfi_offset 8, -16
 142 00b8 13040101 		addi	s0,sp,16
 143              		.cfi_def_cfa 8, 0
  29:src/_sem.cpp  ****     // Getting a blocked thread by a FIFO mechanism
  30:src/_sem.cpp  ****     TCB* temp = this->blocked.removeFirst();
 144              		.loc 1 30 5
 145              		.loc 1 30 42 is_stmt 0
 146 00bc 13058500 		addi	a0,a0,8
 147              	.LVL13:
 148 00c0 97000000 		call	_ZN4List11removeFirstEv@plt
 148      E7800000 
 149              	.LVL14:
  31:src/_sem.cpp  **** 
  32:src/_sem.cpp  ****     // Checking if unblock was called on an empty blocked list.
  33:src/_sem.cpp  ****     if (temp == nullptr) return;
GAS LISTING /tmp/cc7uAgBF.s 			page 5


 150              		.loc 1 33 5 is_stmt 1
 151 00c8 630A0500 		beqz	a0,.L12
  34:src/_sem.cpp  **** 
  35:src/_sem.cpp  ****     // Unblocking
  36:src/_sem.cpp  ****     temp->setBlocked(false);
 152              		.loc 1 36 5
 153              	.LVL15:
 154              	.LBB10:
 155              	.LBB11:
 156              		.loc 2 29 37
 157              		.loc 2 29 49 is_stmt 0
 158 00cc 93071000 		li	a5,1
 159 00d0 2324F502 		sw	a5,40(a0)
 160              	.LVL16:
 161              	.LBE11:
 162              	.LBE10:
  37:src/_sem.cpp  ****     Scheduler::put(temp);
 163              		.loc 1 37 5 is_stmt 1
 164              		.loc 1 37 19 is_stmt 0
 165 00d4 97000000 		call	_ZN9Scheduler3putEP3TCB@plt
 165      E7800000 
 166              	.LVL17:
 167              	.L12:
  38:src/_sem.cpp  **** }
 168              		.loc 1 38 1
 169 00dc 83308100 		ld	ra,8(sp)
 170              		.cfi_restore 1
 171 00e0 03340100 		ld	s0,0(sp)
 172              		.cfi_restore 8
 173              		.cfi_def_cfa 2, 16
 174 00e4 13010101 		addi	sp,sp,16
 175              		.cfi_def_cfa_offset 0
 176 00e8 67800000 		jr	ra
 177              		.cfi_endproc
 178              	.LFE32:
 180              		.align	2
 181              		.globl	_ZN4_sem6signalEv
 183              	_ZN4_sem6signalEv:
 184              	.LFB30:
  13:src/_sem.cpp  ****     if(closed) return -1;
 185              		.loc 1 13 20 is_stmt 1
 186              		.cfi_startproc
 187              	.LVL18:
  14:src/_sem.cpp  ****     if(++val <= 0) unblock();
 188              		.loc 1 14 5
  14:src/_sem.cpp  ****     if(++val <= 0) unblock();
 189              		.loc 1 14 8 is_stmt 0
 190 00ec 83474500 		lbu	a5,4(a0)
  14:src/_sem.cpp  ****     if(++val <= 0) unblock();
 191              		.loc 1 14 5
 192 00f0 63960704 		bnez	a5,.L17
  15:src/_sem.cpp  ****     return 0;
 193              		.loc 1 15 5 is_stmt 1
  15:src/_sem.cpp  ****     return 0;
 194              		.loc 1 15 10 is_stmt 0
 195 00f4 83270500 		lw	a5,0(a0)
  15:src/_sem.cpp  ****     return 0;
GAS LISTING /tmp/cc7uAgBF.s 			page 6


 196              		.loc 1 15 8
 197 00f8 9B871700 		addiw	a5,a5,1
 198 00fc 1B870700 		sext.w	a4,a5
  15:src/_sem.cpp  ****     return 0;
 199              		.loc 1 15 14
 200 0100 2320F500 		sw	a5,0(a0)
  15:src/_sem.cpp  ****     return 0;
 201              		.loc 1 15 5
 202 0104 6356E000 		blez	a4,.L23
  16:src/_sem.cpp  **** }
 203              		.loc 1 16 12
 204 0108 13050000 		li	a0,0
 205              	.LVL19:
  17:src/_sem.cpp  **** 
 206              		.loc 1 17 1
 207 010c 67800000 		ret
 208              	.LVL20:
 209              	.L23:
  13:src/_sem.cpp  ****     if(closed) return -1;
 210              		.loc 1 13 20 discriminator 1
 211 0110 130101FF 		addi	sp,sp,-16
 212              		.cfi_def_cfa_offset 16
 213 0114 23341100 		sd	ra,8(sp)
 214 0118 23308100 		sd	s0,0(sp)
 215              		.cfi_offset 1, -8
 216              		.cfi_offset 8, -16
 217 011c 13040101 		addi	s0,sp,16
 218              		.cfi_def_cfa 8, 0
  15:src/_sem.cpp  ****     return 0;
 219              		.loc 1 15 20 is_stmt 1 discriminator 1
  15:src/_sem.cpp  ****     return 0;
 220              		.loc 1 15 27 is_stmt 0 discriminator 1
 221 0120 97000000 		call	_ZN4_sem7unblockEv
 221      E7800000 
 222              	.LVL21:
  16:src/_sem.cpp  **** }
 223              		.loc 1 16 12 discriminator 1
 224 0128 13050000 		li	a0,0
  17:src/_sem.cpp  **** 
 225              		.loc 1 17 1 discriminator 1
 226 012c 83308100 		ld	ra,8(sp)
 227              		.cfi_restore 1
 228 0130 03340100 		ld	s0,0(sp)
 229              		.cfi_restore 8
 230              		.cfi_def_cfa 2, 16
 231 0134 13010101 		addi	sp,sp,16
 232              		.cfi_def_cfa_offset 0
 233 0138 67800000 		jr	ra
 234              	.LVL22:
 235              	.L17:
  14:src/_sem.cpp  ****     if(++val <= 0) unblock();
 236              		.loc 1 14 24
 237 013c 1305F0FF 		li	a0,-1
 238              	.LVL23:
 239 0140 67800000 		ret
 240              		.cfi_endproc
 241              	.LFE30:
GAS LISTING /tmp/cc7uAgBF.s 			page 7


 243              		.align	2
 244              		.globl	_ZN4_sem5closeEv
 246              	_ZN4_sem5closeEv:
 247              	.LFB33:
  39:src/_sem.cpp  **** 
  40:src/_sem.cpp  **** int _sem::close(){
 248              		.loc 1 40 18 is_stmt 1
 249              		.cfi_startproc
 250              	.LVL24:
 251 0144 130101FE 		addi	sp,sp,-32
 252              		.cfi_def_cfa_offset 32
 253 0148 233C1100 		sd	ra,24(sp)
 254 014c 23388100 		sd	s0,16(sp)
 255 0150 23349100 		sd	s1,8(sp)
 256              		.cfi_offset 1, -8
 257              		.cfi_offset 8, -16
 258              		.cfi_offset 9, -24
 259 0154 13040102 		addi	s0,sp,32
 260              		.cfi_def_cfa 8, 0
 261 0158 93040500 		mv	s1,a0
  41:src/_sem.cpp  ****     // We assume that closing a semaphore that has already been closed is not an error
  42:src/_sem.cpp  ****     // if (this->closed) return -1;
  43:src/_sem.cpp  **** 
  44:src/_sem.cpp  ****     this->closed = true;
 262              		.loc 1 44 5
 263              		.loc 1 44 18 is_stmt 0
 264 015c 93071000 		li	a5,1
 265 0160 2302F500 		sb	a5,4(a0)
 266              	.LVL25:
 267              	.L26:
  45:src/_sem.cpp  **** 
  46:src/_sem.cpp  ****     // Unblocking all the threads blocked on this semaphore
  47:src/_sem.cpp  ****     TCB* temp;
 268              		.loc 1 47 5 is_stmt 1
  48:src/_sem.cpp  ****     while((temp = this->blocked.removeFirst()) != nullptr){
 269              		.loc 1 48 5
 270              		.loc 1 48 48
 271              		.loc 1 48 44 is_stmt 0
 272 0164 13858400 		addi	a0,s1,8
 273 0168 97000000 		call	_ZN4List11removeFirstEv@plt
 273      E7800000 
 274              	.LVL26:
 275              		.loc 1 48 48
 276 0170 630C0500 		beqz	a0,.L25
  49:src/_sem.cpp  ****         temp->setBlocked(false);
 277              		.loc 1 49 9 is_stmt 1
 278              	.LVL27:
 279              	.LBB12:
 280              	.LBB13:
 281              		.loc 2 29 37
 282              		.loc 2 29 49 is_stmt 0
 283 0174 93071000 		li	a5,1
 284 0178 2324F502 		sw	a5,40(a0)
 285              	.LVL28:
 286              	.LBE13:
 287              	.LBE12:
  50:src/_sem.cpp  ****         Scheduler::put(temp);
GAS LISTING /tmp/cc7uAgBF.s 			page 8


 288              		.loc 1 50 9 is_stmt 1
 289              		.loc 1 50 23 is_stmt 0
 290 017c 97000000 		call	_ZN9Scheduler3putEP3TCB@plt
 290      E7800000 
 291              	.LVL29:
  48:src/_sem.cpp  ****     while((temp = this->blocked.removeFirst()) != nullptr){
 292              		.loc 1 48 5
 293 0184 6FF01FFE 		j	.L26
 294              	.LVL30:
 295              	.L25:
  51:src/_sem.cpp  ****     }
  52:src/_sem.cpp  ****     return 0;
 296              		.loc 1 52 5 is_stmt 1
  53:src/_sem.cpp  **** }
 297              		.loc 1 53 1 is_stmt 0
 298 0188 13050000 		li	a0,0
 299              	.LVL31:
 300 018c 83308101 		ld	ra,24(sp)
 301              		.cfi_restore 1
 302 0190 03340101 		ld	s0,16(sp)
 303              		.cfi_restore 8
 304              		.cfi_def_cfa 2, 32
 305 0194 83348100 		ld	s1,8(sp)
 306              		.cfi_restore 9
 307              	.LVL32:
 308 0198 13010102 		addi	sp,sp,32
 309              		.cfi_def_cfa_offset 0
 310 019c 67800000 		jr	ra
 311              		.cfi_endproc
 312              	.LFE33:
 314              	.Letext0:
 315              		.file 3 "src/../h/list.hpp"
 316              		.file 4 "src/../h/../lib/hw.h"
 317              		.file 5 "src/../h/_sem.hpp"
 318              		.file 6 "src/../h/../h/Scheduler.hpp"
 319              		.file 7 "src/../h/syscall_c.hpp"
GAS LISTING /tmp/cc7uAgBF.s 			page 9


DEFINED SYMBOLS
                            *ABS*:0000000000000000 _sem.cpp
     /tmp/cc7uAgBF.s:9      .text:0000000000000000 _ZN4_sem5blockEv
     /tmp/cc7uAgBF.s:13     .text:0000000000000000 .L0 
     /tmp/cc7uAgBF.s:15     .text:0000000000000000 .L0 
     /tmp/cc7uAgBF.s:16     .text:0000000000000004 .L0 
     /tmp/cc7uAgBF.s:20     .text:0000000000000010 .L0 
     /tmp/cc7uAgBF.s:21     .text:0000000000000010 .L0 
     /tmp/cc7uAgBF.s:22     .text:0000000000000010 .L0 
     /tmp/cc7uAgBF.s:24     .text:0000000000000014 .L0 
     /tmp/cc7uAgBF.s:26     .text:0000000000000014 .L0 
     /tmp/cc7uAgBF.s:27     .text:0000000000000014 .L0 
     /tmp/cc7uAgBF.s:34     .text:000000000000002c .L0 
     /tmp/cc7uAgBF.s:35     .text:000000000000002c .L0 
     /tmp/cc7uAgBF.s:41     .text:0000000000000030 .L0 
     /tmp/cc7uAgBF.s:42     .text:0000000000000030 .L0 
     /tmp/cc7uAgBF.s:48     .text:0000000000000038 .L0 
     /tmp/cc7uAgBF.s:49     .text:0000000000000038 .L0 
     /tmp/cc7uAgBF.s:52     .text:0000000000000040 .L0 
     /tmp/cc7uAgBF.s:53     .text:0000000000000044 .L0 
     /tmp/cc7uAgBF.s:55     .text:0000000000000048 .L0 
     /tmp/cc7uAgBF.s:56     .text:0000000000000048 .L0 
     /tmp/cc7uAgBF.s:58     .text:000000000000004c .L0 
     /tmp/cc7uAgBF.s:60     .text:0000000000000050 .L0 
     /tmp/cc7uAgBF.s:62     .text:0000000000000054 .L0 
     /tmp/cc7uAgBF.s:68     .text:0000000000000054 _ZN4_sem4waitEv
     /tmp/cc7uAgBF.s:71     .text:0000000000000054 .L0 
     /tmp/cc7uAgBF.s:73     .text:0000000000000054 .L0 
     /tmp/cc7uAgBF.s:74     .text:0000000000000054 .L0 
     /tmp/cc7uAgBF.s:75     .text:0000000000000054 .L0 
     /tmp/cc7uAgBF.s:77     .text:0000000000000058 .L0 
     /tmp/cc7uAgBF.s:79     .text:000000000000005c .L0 
     /tmp/cc7uAgBF.s:80     .text:000000000000005c .L0 
     /tmp/cc7uAgBF.s:82     .text:0000000000000060 .L0 
     /tmp/cc7uAgBF.s:84     .text:0000000000000064 .L0 
     /tmp/cc7uAgBF.s:86     .text:0000000000000068 .L0 
     /tmp/cc7uAgBF.s:89     .text:0000000000000070 .L0 
     /tmp/cc7uAgBF.s:92     .text:0000000000000074 .L0 
     /tmp/cc7uAgBF.s:96     .text:0000000000000078 .L0 
     /tmp/cc7uAgBF.s:97     .text:000000000000007c .L0 
     /tmp/cc7uAgBF.s:100    .text:0000000000000084 .L0 
     /tmp/cc7uAgBF.s:101    .text:0000000000000084 .L0 
     /tmp/cc7uAgBF.s:103    .text:0000000000000088 .L0 
     /tmp/cc7uAgBF.s:105    .text:0000000000000088 .L0 
     /tmp/cc7uAgBF.s:106    .text:0000000000000088 .L0 
     /tmp/cc7uAgBF.s:109    .text:0000000000000090 .L0 
     /tmp/cc7uAgBF.s:111    .text:0000000000000094 .L0 
     /tmp/cc7uAgBF.s:112    .text:0000000000000098 .L0 
     /tmp/cc7uAgBF.s:114    .text:000000000000009c .L0 
     /tmp/cc7uAgBF.s:115    .text:000000000000009c .L0 
     /tmp/cc7uAgBF.s:117    .text:00000000000000a0 .L0 
     /tmp/cc7uAgBF.s:122    .text:00000000000000a4 .L0 
     /tmp/cc7uAgBF.s:125    .text:00000000000000ac .L0 
     /tmp/cc7uAgBF.s:131    .text:00000000000000ac _ZN4_sem7unblockEv
     /tmp/cc7uAgBF.s:134    .text:00000000000000ac .L0 
     /tmp/cc7uAgBF.s:136    .text:00000000000000ac .L0 
     /tmp/cc7uAgBF.s:137    .text:00000000000000b0 .L0 
GAS LISTING /tmp/cc7uAgBF.s 			page 10


     /tmp/cc7uAgBF.s:140    .text:00000000000000b8 .L0 
     /tmp/cc7uAgBF.s:141    .text:00000000000000b8 .L0 
     /tmp/cc7uAgBF.s:143    .text:00000000000000bc .L0 
     /tmp/cc7uAgBF.s:145    .text:00000000000000bc .L0 
     /tmp/cc7uAgBF.s:146    .text:00000000000000bc .L0 
     /tmp/cc7uAgBF.s:151    .text:00000000000000c8 .L0 
     /tmp/cc7uAgBF.s:156    .text:00000000000000cc .L0 
     /tmp/cc7uAgBF.s:157    .text:00000000000000cc .L0 
     /tmp/cc7uAgBF.s:158    .text:00000000000000cc .L0 
     /tmp/cc7uAgBF.s:164    .text:00000000000000d4 .L0 
     /tmp/cc7uAgBF.s:165    .text:00000000000000d4 .L0 
     /tmp/cc7uAgBF.s:169    .text:00000000000000dc .L0 
     /tmp/cc7uAgBF.s:170    .text:00000000000000e0 .L0 
     /tmp/cc7uAgBF.s:172    .text:00000000000000e4 .L0 
     /tmp/cc7uAgBF.s:173    .text:00000000000000e4 .L0 
     /tmp/cc7uAgBF.s:175    .text:00000000000000e8 .L0 
     /tmp/cc7uAgBF.s:177    .text:00000000000000ec .L0 
     /tmp/cc7uAgBF.s:183    .text:00000000000000ec _ZN4_sem6signalEv
     /tmp/cc7uAgBF.s:186    .text:00000000000000ec .L0 
     /tmp/cc7uAgBF.s:188    .text:00000000000000ec .L0 
     /tmp/cc7uAgBF.s:189    .text:00000000000000ec .L0 
     /tmp/cc7uAgBF.s:190    .text:00000000000000ec .L0 
     /tmp/cc7uAgBF.s:192    .text:00000000000000f0 .L0 
     /tmp/cc7uAgBF.s:194    .text:00000000000000f4 .L0 
     /tmp/cc7uAgBF.s:195    .text:00000000000000f4 .L0 
     /tmp/cc7uAgBF.s:197    .text:00000000000000f8 .L0 
     /tmp/cc7uAgBF.s:200    .text:0000000000000100 .L0 
     /tmp/cc7uAgBF.s:202    .text:0000000000000104 .L0 
     /tmp/cc7uAgBF.s:204    .text:0000000000000108 .L0 
     /tmp/cc7uAgBF.s:207    .text:000000000000010c .L0 
     /tmp/cc7uAgBF.s:211    .text:0000000000000110 .L0 
     /tmp/cc7uAgBF.s:212    .text:0000000000000114 .L0 
     /tmp/cc7uAgBF.s:215    .text:000000000000011c .L0 
     /tmp/cc7uAgBF.s:216    .text:000000000000011c .L0 
     /tmp/cc7uAgBF.s:218    .text:0000000000000120 .L0 
     /tmp/cc7uAgBF.s:220    .text:0000000000000120 .L0 
     /tmp/cc7uAgBF.s:221    .text:0000000000000120 .L0 
     /tmp/cc7uAgBF.s:224    .text:0000000000000128 .L0 
     /tmp/cc7uAgBF.s:226    .text:000000000000012c .L0 
     /tmp/cc7uAgBF.s:227    .text:0000000000000130 .L0 
     /tmp/cc7uAgBF.s:229    .text:0000000000000134 .L0 
     /tmp/cc7uAgBF.s:230    .text:0000000000000134 .L0 
     /tmp/cc7uAgBF.s:232    .text:0000000000000138 .L0 
     /tmp/cc7uAgBF.s:237    .text:000000000000013c .L0 
     /tmp/cc7uAgBF.s:240    .text:0000000000000144 .L0 
     /tmp/cc7uAgBF.s:246    .text:0000000000000144 _ZN4_sem5closeEv
     /tmp/cc7uAgBF.s:249    .text:0000000000000144 .L0 
     /tmp/cc7uAgBF.s:251    .text:0000000000000144 .L0 
     /tmp/cc7uAgBF.s:252    .text:0000000000000148 .L0 
     /tmp/cc7uAgBF.s:256    .text:0000000000000154 .L0 
     /tmp/cc7uAgBF.s:257    .text:0000000000000154 .L0 
     /tmp/cc7uAgBF.s:258    .text:0000000000000154 .L0 
     /tmp/cc7uAgBF.s:260    .text:0000000000000158 .L0 
     /tmp/cc7uAgBF.s:263    .text:000000000000015c .L0 
     /tmp/cc7uAgBF.s:264    .text:000000000000015c .L0 
     /tmp/cc7uAgBF.s:269    .text:0000000000000164 .L0 
     /tmp/cc7uAgBF.s:270    .text:0000000000000164 .L0 
GAS LISTING /tmp/cc7uAgBF.s 			page 11


     /tmp/cc7uAgBF.s:271    .text:0000000000000164 .L0 
     /tmp/cc7uAgBF.s:272    .text:0000000000000164 .L0 
     /tmp/cc7uAgBF.s:276    .text:0000000000000170 .L0 
     /tmp/cc7uAgBF.s:281    .text:0000000000000174 .L0 
     /tmp/cc7uAgBF.s:282    .text:0000000000000174 .L0 
     /tmp/cc7uAgBF.s:283    .text:0000000000000174 .L0 
     /tmp/cc7uAgBF.s:289    .text:000000000000017c .L0 
     /tmp/cc7uAgBF.s:290    .text:000000000000017c .L0 
     /tmp/cc7uAgBF.s:293    .text:0000000000000184 .L0 
     /tmp/cc7uAgBF.s:297    .text:0000000000000188 .L0 
     /tmp/cc7uAgBF.s:298    .text:0000000000000188 .L0 
     /tmp/cc7uAgBF.s:301    .text:0000000000000190 .L0 
     /tmp/cc7uAgBF.s:303    .text:0000000000000194 .L0 
     /tmp/cc7uAgBF.s:304    .text:0000000000000194 .L0 
     /tmp/cc7uAgBF.s:306    .text:0000000000000198 .L0 
     /tmp/cc7uAgBF.s:309    .text:000000000000019c .L0 
     /tmp/cc7uAgBF.s:311    .text:00000000000001a0 .L0 
     /tmp/cc7uAgBF.s:320    .text:00000000000001a0 .L0 
     /tmp/cc7uAgBF.s:27     .text:0000000000000014 .L0 
     /tmp/cc7uAgBF.s:120    .text:00000000000000a4 .L5
     /tmp/cc7uAgBF.s:94     .text:0000000000000078 .L11
     /tmp/cc7uAgBF.s:167    .text:00000000000000dc .L12
     /tmp/cc7uAgBF.s:235    .text:000000000000013c .L17
     /tmp/cc7uAgBF.s:209    .text:0000000000000110 .L23
     /tmp/cc7uAgBF.s:295    .text:0000000000000188 .L25
     /tmp/cc7uAgBF.s:267    .text:0000000000000164 .L26
     /tmp/cc7uAgBF.s:1405   .debug_abbrev:0000000000000000 .Ldebug_abbrev0
     /tmp/cc7uAgBF.s:2712   .debug_str:00000000000005ad .LASF109
     /tmp/cc7uAgBF.s:2514   .debug_str:0000000000000057 .LASF110
     /tmp/cc7uAgBF.s:2666   .debug_str:0000000000000462 .LASF111
     /tmp/cc7uAgBF.s:5      .text:0000000000000000 .Ltext0
     /tmp/cc7uAgBF.s:314    .text:00000000000001a0 .Letext0
     /tmp/cc7uAgBF.s:2498   .debug_line:0000000000000000 .Ldebug_line0
     /tmp/cc7uAgBF.s:2594   .debug_str:00000000000002a5 .LASF2
     /tmp/cc7uAgBF.s:2554   .debug_str:0000000000000181 .LASF0
     /tmp/cc7uAgBF.s:2626   .debug_str:0000000000000368 .LASF1
     /tmp/cc7uAgBF.s:2562   .debug_str:00000000000001b6 .LASF4
     /tmp/cc7uAgBF.s:2670   .debug_str:00000000000004a1 .LASF17
     /tmp/cc7uAgBF.s:2638   .debug_str:00000000000003b2 .LASF112
     /tmp/cc7uAgBF.s:2548   .debug_str:000000000000014b .LASF113
     /tmp/cc7uAgBF.s:2540   .debug_str:000000000000010c .LASF3
     /tmp/cc7uAgBF.s:2720   .debug_str:0000000000000697 .LASF5
     /tmp/cc7uAgBF.s:2714   .debug_str:0000000000000671 .LASF6
     /tmp/cc7uAgBF.s:2728   .debug_str:00000000000006d3 .LASF7
     /tmp/cc7uAgBF.s:2586   .debug_str:0000000000000255 .LASF114
     /tmp/cc7uAgBF.s:2706   .debug_str:0000000000000591 .LASF8
     /tmp/cc7uAgBF.s:2674   .debug_str:00000000000004b8 .LASF9
     /tmp/cc7uAgBF.s:2598   .debug_str:00000000000002bb .LASF10
     /tmp/cc7uAgBF.s:2702   .debug_str:0000000000000578 .LASF11
     /tmp/cc7uAgBF.s:2512   .debug_str:000000000000004f .LASF115
     /tmp/cc7uAgBF.s:2740   .debug_str:000000000000074f .LASF67
     /tmp/cc7uAgBF.s:2606   .debug_str:00000000000002db .LASF12
     /tmp/cc7uAgBF.s:2730   .debug_str:00000000000006eb .LASF13
     /tmp/cc7uAgBF.s:2526   .debug_str:000000000000009f .LASF14
     /tmp/cc7uAgBF.s:2656   .debug_str:000000000000041a .LASF15
     /tmp/cc7uAgBF.s:2700   .debug_str:000000000000056d .LASF16
     /tmp/cc7uAgBF.s:2582   .debug_str:0000000000000230 .LASF18
GAS LISTING /tmp/cc7uAgBF.s 			page 12


     /tmp/cc7uAgBF.s:2632   .debug_str:0000000000000382 .LASF19
     /tmp/cc7uAgBF.s:2590   .debug_str:0000000000000266 .LASF20
     /tmp/cc7uAgBF.s:2510   .debug_str:0000000000000045 .LASF21
     /tmp/cc7uAgBF.s:2610   .debug_str:00000000000002f9 .LASF22
     /tmp/cc7uAgBF.s:2600   .debug_str:00000000000002c3 .LASF23
     /tmp/cc7uAgBF.s:2620   .debug_str:0000000000000332 .LASF24
     /tmp/cc7uAgBF.s:2718   .debug_str:000000000000068c .LASF25
     /tmp/cc7uAgBF.s:2556   .debug_str:0000000000000186 .LASF26
     /tmp/cc7uAgBF.s:2564   .debug_str:00000000000001c3 .LASF27
     /tmp/cc7uAgBF.s:2572   .debug_str:00000000000001f1 .LASF28
     /tmp/cc7uAgBF.s:2580   .debug_str:0000000000000226 .LASF29
     /tmp/cc7uAgBF.s:2742   .debug_str:0000000000000754 .LASF30
     /tmp/cc7uAgBF.s:2538   .debug_str:00000000000000ff .LASF31
     /tmp/cc7uAgBF.s:2530   .debug_str:00000000000000a9 .LASF32
     /tmp/cc7uAgBF.s:2698   .debug_str:0000000000000560 .LASF33
     /tmp/cc7uAgBF.s:2546   .debug_str:0000000000000133 .LASF34
     /tmp/cc7uAgBF.s:2634   .debug_str:000000000000038e .LASF35
     /tmp/cc7uAgBF.s:2550   .debug_str:000000000000015b .LASF36
     /tmp/cc7uAgBF.s:2680   .debug_str:00000000000004d9 .LASF37
     /tmp/cc7uAgBF.s:2696   .debug_str:0000000000000541 .LASF38
     /tmp/cc7uAgBF.s:2622   .debug_str:0000000000000348 .LASF39
     /tmp/cc7uAgBF.s:2518   .debug_str:000000000000006a .LASF40
     /tmp/cc7uAgBF.s:2724   .debug_str:00000000000006ba .LASF41
     /tmp/cc7uAgBF.s:2570   .debug_str:00000000000001dd .LASF42
     /tmp/cc7uAgBF.s:2722   .debug_str:00000000000006ae .LASF43
     /tmp/cc7uAgBF.s:2534   .debug_str:00000000000000d0 .LASF44
     /tmp/cc7uAgBF.s:2568   .debug_str:00000000000001d7 .LASF45
     /tmp/cc7uAgBF.s:2636   .debug_str:00000000000003a2 .LASF47
     /tmp/cc7uAgBF.s:2500   .debug_str:0000000000000000 .LASF60
     /tmp/cc7uAgBF.s:2682   .debug_str:00000000000004ed .LASF116
     /tmp/cc7uAgBF.s:2618   .debug_str:000000000000032d .LASF46
     /tmp/cc7uAgBF.s:2532   .debug_str:00000000000000c1 .LASF48
     /tmp/cc7uAgBF.s:2566   .debug_str:00000000000001cf .LASF117
     /tmp/cc7uAgBF.s:2560   .debug_str:00000000000001b1 .LASF49
     /tmp/cc7uAgBF.s:2690   .debug_str:000000000000050f .LASF50
     /tmp/cc7uAgBF.s:2602   .debug_str:00000000000002ce .LASF51
     /tmp/cc7uAgBF.s:2658   .debug_str:0000000000000423 .LASF52
     /tmp/cc7uAgBF.s:2654   .debug_str:0000000000000414 .LASF53
     /tmp/cc7uAgBF.s:2576   .debug_str:000000000000020d .LASF54
     /tmp/cc7uAgBF.s:2516   .debug_str:0000000000000064 .LASF55
     /tmp/cc7uAgBF.s:2604   .debug_str:00000000000002d3 .LASF56
     /tmp/cc7uAgBF.s:2648   .debug_str:00000000000003fb .LASF57
     /tmp/cc7uAgBF.s:2502   .debug_str:0000000000000005 .LASF58
     /tmp/cc7uAgBF.s:2608   .debug_str:00000000000002e8 .LASF59
     /tmp/cc7uAgBF.s:2640   .debug_str:00000000000003bc .LASF118
     /tmp/cc7uAgBF.s:2732   .debug_str:000000000000070d .LASF105
     /tmp/cc7uAgBF.s:2592   .debug_str:000000000000027d .LASF119
     /tmp/cc7uAgBF.s:2614   .debug_str:0000000000000319 .LASF61
     /tmp/cc7uAgBF.s:2734   .debug_str:000000000000071b .LASF63
     /tmp/cc7uAgBF.s:2650   .debug_str:0000000000000406 .LASF62
     /tmp/cc7uAgBF.s:2624   .debug_str:0000000000000355 .LASF64
     /tmp/cc7uAgBF.s:2588   .debug_str:000000000000025b .LASF65
     /tmp/cc7uAgBF.s:2612   .debug_str:000000000000030e .LASF66
     /tmp/cc7uAgBF.s:2596   .debug_str:00000000000002aa .LASF68
     /tmp/cc7uAgBF.s:2646   .debug_str:00000000000003ee .LASF69
     /tmp/cc7uAgBF.s:2662   .debug_str:000000000000043e .LASF70
     /tmp/cc7uAgBF.s:2630   .debug_str:0000000000000374 .LASF71
GAS LISTING /tmp/cc7uAgBF.s 			page 13


     /tmp/cc7uAgBF.s:2684   .debug_str:00000000000004fe .LASF72
     /tmp/cc7uAgBF.s:2552   .debug_str:000000000000017a .LASF73
     /tmp/cc7uAgBF.s:2506   .debug_str:0000000000000023 .LASF74
     /tmp/cc7uAgBF.s:2520   .debug_str:0000000000000083 .LASF75
     /tmp/cc7uAgBF.s:2668   .debug_str:000000000000048e .LASF76
     /tmp/cc7uAgBF.s:2644   .debug_str:00000000000003db .LASF77
     /tmp/cc7uAgBF.s:2726   .debug_str:00000000000006c3 .LASF78
     /tmp/cc7uAgBF.s:2584   .debug_str:0000000000000247 .LASF79
     /tmp/cc7uAgBF.s:2678   .debug_str:00000000000004ca .LASF80
     /tmp/cc7uAgBF.s:2716   .debug_str:000000000000067d .LASF81
     /tmp/cc7uAgBF.s:2704   .debug_str:0000000000000581 .LASF82
     /tmp/cc7uAgBF.s:2508   .debug_str:0000000000000035 .LASF83
     /tmp/cc7uAgBF.s:2542   .debug_str:0000000000000114 .LASF84
     /tmp/cc7uAgBF.s:2694   .debug_str:000000000000052b .LASF85
     /tmp/cc7uAgBF.s:2738   .debug_str:0000000000000739 .LASF86
     /tmp/cc7uAgBF.s:2736   .debug_str:0000000000000734 .LASF87
     /tmp/cc7uAgBF.s:2708   .debug_str:000000000000059a .LASF88
     /tmp/cc7uAgBF.s:2710   .debug_str:00000000000005a7 .LASF89
     /tmp/cc7uAgBF.s:2664   .debug_str:0000000000000451 .LASF90
     /tmp/cc7uAgBF.s:2528   .debug_str:00000000000000a4 .LASF91
     /tmp/cc7uAgBF.s:2692   .debug_str:000000000000051b .LASF92
     /tmp/cc7uAgBF.s:2672   .debug_str:00000000000004b1 .LASF93
     /tmp/cc7uAgBF.s:2660   .debug_str:000000000000042c .LASF94
     /tmp/cc7uAgBF.s:2616   .debug_str:0000000000000327 .LASF95
     /tmp/cc7uAgBF.s:2524   .debug_str:0000000000000092 .LASF96
     /tmp/cc7uAgBF.s:2686   .debug_str:0000000000000504 .LASF97
     /tmp/cc7uAgBF.s:2504   .debug_str:0000000000000012 .LASF98
     /tmp/cc7uAgBF.s:2522   .debug_str:000000000000008a .LASF99
     /tmp/cc7uAgBF.s:2544   .debug_str:0000000000000120 .LASF100
     /tmp/cc7uAgBF.s:2628   .debug_str:000000000000036d .LASF101
     /tmp/cc7uAgBF.s:2642   .debug_str:00000000000003d3 .LASF102
     /tmp/cc7uAgBF.s:2676   .debug_str:00000000000004c0 .LASF103
     /tmp/cc7uAgBF.s:2578   .debug_str:0000000000000215 .LASF104
     /tmp/cc7uAgBF.s:2558   .debug_str:000000000000019d .LASF120
     /tmp/cc7uAgBF.s:2536   .debug_str:00000000000000e7 .LASF121
     /tmp/cc7uAgBF.s:2574   .debug_str:0000000000000208 .LASF106
     /tmp/cc7uAgBF.s:247    .text:0000000000000144 .LFB33
     /tmp/cc7uAgBF.s:312    .text:00000000000001a0 .LFE33
     /tmp/cc7uAgBF.s:2688   .debug_str:000000000000050a .LASF108
     /tmp/cc7uAgBF.s:2292   .debug_loc:0000000000000000 .LLST9
     /tmp/cc7uAgBF.s:2652   .debug_str:000000000000040f .LASF107
     /tmp/cc7uAgBF.s:2310   .debug_loc:000000000000004c .LLST10
     /tmp/cc7uAgBF.s:279    .text:0000000000000174 .LBB12
     /tmp/cc7uAgBF.s:287    .text:000000000000017c .LBE12
     /tmp/cc7uAgBF.s:2321   .debug_loc:0000000000000082 .LLST11
     /tmp/cc7uAgBF.s:2329   .debug_loc:00000000000000a6 .LLST12
     /tmp/cc7uAgBF.s:274    .text:0000000000000170 .LVL26
     /tmp/cc7uAgBF.s:291    .text:0000000000000184 .LVL29
     /tmp/cc7uAgBF.s:132    .text:00000000000000ac .LFB32
     /tmp/cc7uAgBF.s:178    .text:00000000000000ec .LFE32
     /tmp/cc7uAgBF.s:2336   .debug_loc:00000000000000c9 .LLST4
     /tmp/cc7uAgBF.s:2356   .debug_loc:0000000000000117 .LLST5
     /tmp/cc7uAgBF.s:154    .text:00000000000000cc .LBB10
     /tmp/cc7uAgBF.s:162    .text:00000000000000d4 .LBE10
     /tmp/cc7uAgBF.s:2363   .debug_loc:000000000000013a .LLST6
     /tmp/cc7uAgBF.s:2371   .debug_loc:000000000000015e .LLST7
     /tmp/cc7uAgBF.s:149    .text:00000000000000c8 .LVL14
GAS LISTING /tmp/cc7uAgBF.s 			page 14


     /tmp/cc7uAgBF.s:166    .text:00000000000000dc .LVL17
     /tmp/cc7uAgBF.s:10     .text:0000000000000000 .LFB31
     /tmp/cc7uAgBF.s:63     .text:0000000000000054 .LFE31
     /tmp/cc7uAgBF.s:2378   .debug_loc:0000000000000181 .LLST0
     /tmp/cc7uAgBF.s:37     .text:0000000000000030 .LBB8
     /tmp/cc7uAgBF.s:46     .text:0000000000000038 .LBE8
     /tmp/cc7uAgBF.s:2398   .debug_loc:00000000000001cf .LLST1
     /tmp/cc7uAgBF.s:2406   .debug_loc:00000000000001f3 .LLST2
     /tmp/cc7uAgBF.s:32     .text:000000000000002c .LVL2
     /tmp/cc7uAgBF.s:50     .text:0000000000000040 .LVL5
     /tmp/cc7uAgBF.s:184    .text:00000000000000ec .LFB30
     /tmp/cc7uAgBF.s:241    .text:0000000000000144 .LFE30
     /tmp/cc7uAgBF.s:2413   .debug_loc:0000000000000216 .LLST8
     /tmp/cc7uAgBF.s:222    .text:0000000000000128 .LVL21
     /tmp/cc7uAgBF.s:69     .text:0000000000000054 .LFB29
     /tmp/cc7uAgBF.s:126    .text:00000000000000ac .LFE29
     /tmp/cc7uAgBF.s:2449   .debug_loc:00000000000002a1 .LLST3
     /tmp/cc7uAgBF.s:107    .text:0000000000000090 .LVL9
     /tmp/cc7uAgBF.s:250    .text:0000000000000144 .LVL24
     /tmp/cc7uAgBF.s:266    .text:0000000000000164 .LVL25
     /tmp/cc7uAgBF.s:307    .text:0000000000000198 .LVL32
     /tmp/cc7uAgBF.s:294    .text:0000000000000188 .LVL30
     /tmp/cc7uAgBF.s:299    .text:000000000000018c .LVL31
     /tmp/cc7uAgBF.s:278    .text:0000000000000174 .LVL27
     /tmp/cc7uAgBF.s:285    .text:000000000000017c .LVL28
     /tmp/cc7uAgBF.s:135    .text:00000000000000ac .LVL12
     /tmp/cc7uAgBF.s:147    .text:00000000000000c0 .LVL13
     /tmp/cc7uAgBF.s:153    .text:00000000000000cc .LVL15
     /tmp/cc7uAgBF.s:160    .text:00000000000000d4 .LVL16
     /tmp/cc7uAgBF.s:14     .text:0000000000000000 .LVL0
     /tmp/cc7uAgBF.s:30     .text:0000000000000024 .LVL1
     /tmp/cc7uAgBF.s:36     .text:0000000000000030 .LVL3
     /tmp/cc7uAgBF.s:44     .text:0000000000000038 .LVL4
     /tmp/cc7uAgBF.s:187    .text:00000000000000ec .LVL18
     /tmp/cc7uAgBF.s:205    .text:000000000000010c .LVL19
     /tmp/cc7uAgBF.s:208    .text:0000000000000110 .LVL20
     /tmp/cc7uAgBF.s:234    .text:000000000000013c .LVL22
     /tmp/cc7uAgBF.s:238    .text:0000000000000140 .LVL23
     /tmp/cc7uAgBF.s:72     .text:0000000000000054 .LVL6
     /tmp/cc7uAgBF.s:90     .text:0000000000000074 .LVL7
     /tmp/cc7uAgBF.s:93     .text:0000000000000078 .LVL8
     /tmp/cc7uAgBF.s:119    .text:00000000000000a4 .LVL10
     /tmp/cc7uAgBF.s:123    .text:00000000000000a8 .LVL11
     /tmp/cc7uAgBF.s:321    .debug_info:0000000000000000 .Ldebug_info0

UNDEFINED SYMBOLS
_ZN3TCB7runningE
_ZN4List7addLastEP3TCB
_ZN3TCB5yieldEv
_ZN4List11removeFirstEv
_ZN9Scheduler3putEP3TCB
