GAS LISTING /tmp/cc7uAgBF.s 			page 1


   1              		.file	"_sem.cpp"
   2              		.option pic
   3              		.option norelax
   4              		.text
   5              	.Ltext0:
   6              		.align	2
   7              		.globl	_ZN4_sem5blockEv
   9              	_ZN4_sem5blockEv:
  10              	.LFB31:
  11              		.file 1 "src/_sem.cpp"
   1:src/_sem.cpp  **** //
   2:src/_sem.cpp  **** // Created by os on 6/23/23.
   3:src/_sem.cpp  **** //
   4:src/_sem.cpp  **** 
   5:src/_sem.cpp  **** #include "../h/_sem.hpp"
   6:src/_sem.cpp  **** 
   7:src/_sem.cpp  **** int _sem::wait() {
   8:src/_sem.cpp  ****     if(closed) return -1;
   9:src/_sem.cpp  ****     if(--val<0) block();
  10:src/_sem.cpp  ****     return 0;
  11:src/_sem.cpp  **** }
  12:src/_sem.cpp  **** 
  13:src/_sem.cpp  **** int _sem::signal() {
  14:src/_sem.cpp  ****     if(closed) return -1;
  15:src/_sem.cpp  ****     if(++val <= 0) unblock();
  16:src/_sem.cpp  ****     return 0;
  17:src/_sem.cpp  **** }
  18:src/_sem.cpp  **** 
  19:src/_sem.cpp  **** void _sem::block() {
  12              		.loc 1 19 20
  13              		.cfi_startproc
  14              	.LVL0:
  15 0000 130101FE 		addi	sp,sp,-32
  16              		.cfi_def_cfa_offset 32
  17 0004 233C1100 		sd	ra,24(sp)
  18 0008 23388100 		sd	s0,16(sp)
  19 000c 23349100 		sd	s1,8(sp)
  20              		.cfi_offset 1, -8
  21              		.cfi_offset 8, -16
  22              		.cfi_offset 9, -24
  23 0010 13040102 		addi	s0,sp,32
  24              		.cfi_def_cfa 8, 0
  20:src/_sem.cpp  ****     // Adding the running thread to a blocked list by a FIFO mechanism
  21:src/_sem.cpp  ****     this->blocked.addLast(TCB::running);
  25              		.loc 1 21 5
  26              		.loc 1 21 26 is_stmt 0
  27 0014 97040000 		la	s1,_ZN3TCB7runningE
  27      83B40400 
  28 001c 83B50400 		ld	a1,0(s1)
  29 0020 13058500 		addi	a0,a0,8
  30              	.LVL1:
  31 0024 97000000 		call	_ZN4List7addLastEP3TCB@plt
  31      E7800000 
  32              	.LVL2:
  22:src/_sem.cpp  **** 
  23:src/_sem.cpp  ****     // Blocking
  24:src/_sem.cpp  ****     TCB::running->setBlocked(true);
GAS LISTING /tmp/cc7uAgBF.s 			page 2


  33              		.loc 1 24 5 is_stmt 1
  34              		.loc 1 24 29 is_stmt 0
  35 002c 83B70400 		ld	a5,0(s1)
  36              	.LVL3:
  37              	.LBB8:
  38              	.LBB9:
  39              		.file 2 "src/../h/TCB.hpp"
   1:src/../h/TCB.hpp **** //
   2:src/../h/TCB.hpp **** // Created by os on 6/20/23.
   3:src/../h/TCB.hpp **** //
   4:src/../h/TCB.hpp **** 
   5:src/../h/TCB.hpp **** #ifndef PROJECT_BASE_V1_1_TCB_HPP
   6:src/../h/TCB.hpp **** #define PROJECT_BASE_V1_1_TCB_HPP
   7:src/../h/TCB.hpp **** 
   8:src/../h/TCB.hpp **** #include "../lib/hw.h"
   9:src/../h/TCB.hpp **** #include "syscall_c.hpp"
  10:src/../h/TCB.hpp **** #include "../h/Scheduler.hpp"
  11:src/../h/TCB.hpp **** #include "list.hpp"
  12:src/../h/TCB.hpp **** 
  13:src/../h/TCB.hpp **** // ideja za klasu preuzeta sa vezbi
  14:src/../h/TCB.hpp **** class TCB {
  15:src/../h/TCB.hpp **** public:
  16:src/../h/TCB.hpp ****     TCB* next;
  17:src/../h/TCB.hpp ****     enum State{FINISHED, RUNNING, BLOCKED, SLEEPING};
  18:src/../h/TCB.hpp ****     using Body = void(*)(void*);
  19:src/../h/TCB.hpp ****     using Argument = void*;
  20:src/../h/TCB.hpp **** 
  21:src/../h/TCB.hpp ****     static TCB* createThread(Body body, Argument argument, uint8* st);
  22:src/../h/TCB.hpp **** 
  23:src/../h/TCB.hpp ****     // Finished
  24:src/../h/TCB.hpp ****     bool isFinished() const{ return this->state == FINISHED; }
  25:src/../h/TCB.hpp ****     void setFinished(bool finished){ this->state = finished? FINISHED:RUNNING; }
  26:src/../h/TCB.hpp **** 
  27:src/../h/TCB.hpp ****     // Blocked
  28:src/../h/TCB.hpp ****     bool isBlocked() const { return this->state == BLOCKED; }
  29:src/../h/TCB.hpp ****     void setBlocked(bool blocked) { this->state = blocked?BLOCKED:RUNNING; }
  40              		.loc 2 29 37 is_stmt 1
  41              		.loc 2 29 49 is_stmt 0
  42 0030 13072000 		li	a4,2
  43 0034 23A4E702 		sw	a4,40(a5)
  44              	.LVL4:
  45              	.LBE9:
  46              	.LBE8:
  25:src/_sem.cpp  ****     TCB::yield();
  47              		.loc 1 25 5 is_stmt 1
  48              		.loc 1 25 15 is_stmt 0
  49 0038 97000000 		call	_ZN3TCB5yieldEv@plt
  49      E7800000 
  50              	.LVL5:
  26:src/_sem.cpp  **** }
  51              		.loc 1 26 1
  52 0040 83308101 		ld	ra,24(sp)
  53              		.cfi_restore 1
  54 0044 03340101 		ld	s0,16(sp)
  55              		.cfi_restore 8
  56              		.cfi_def_cfa 2, 32
  57 0048 83348100 		ld	s1,8(sp)
GAS LISTING /tmp/cc7uAgBF.s 			page 3


  58              		.cfi_restore 9
  59 004c 13010102 		addi	sp,sp,32
  60              		.cfi_def_cfa_offset 0
  61 0050 67800000 		jr	ra
  62              		.cfi_endproc
  63              	.LFE31:
  65              		.align	2
  66              		.globl	_ZN4_sem4waitEv
  68              	_ZN4_sem4waitEv:
  69              	.LFB29:
   7:src/_sem.cpp  ****     if(closed) return -1;
  70              		.loc 1 7 18 is_stmt 1
  71              		.cfi_startproc
  72              	.LVL6:
   8:src/_sem.cpp  ****     if(--val<0) block();
  73              		.loc 1 8 5
   8:src/_sem.cpp  ****     if(--val<0) block();
  74              		.loc 1 8 8 is_stmt 0
  75 0054 83474500 		lbu	a5,4(a0)
   8:src/_sem.cpp  ****     if(--val<0) block();
  76              		.loc 1 8 5
  77 0058 63960704 		bnez	a5,.L5
   9:src/_sem.cpp  ****     return 0;
  78              		.loc 1 9 5 is_stmt 1
   9:src/_sem.cpp  ****     return 0;
  79              		.loc 1 9 10 is_stmt 0
  80 005c 83270500 		lw	a5,0(a0)
   9:src/_sem.cpp  ****     return 0;
  81              		.loc 1 9 8
  82 0060 9B87F7FF 		addiw	a5,a5,-1
   9:src/_sem.cpp  ****     return 0;
  83              		.loc 1 9 13
  84 0064 2320F500 		sw	a5,0(a0)
   9:src/_sem.cpp  ****     return 0;
  85              		.loc 1 9 5
  86 0068 13970702 		slli	a4,a5,32
  87 006c 63460700 		bltz	a4,.L11
  10:src/_sem.cpp  **** }
  88              		.loc 1 10 12
  89 0070 13050000 		li	a0,0
  90              	.LVL7:
  11:src/_sem.cpp  **** 
  91              		.loc 1 11 1
  92 0074 67800000 		ret
  93              	.LVL8:
  94              	.L11:
   7:src/_sem.cpp  ****     if(closed) return -1;
  95              		.loc 1 7 18 discriminator 1
  96 0078 130101FF 		addi	sp,sp,-16
  97              		.cfi_def_cfa_offset 16
  98 007c 23341100 		sd	ra,8(sp)
  99 0080 23308100 		sd	s0,0(sp)
 100              		.cfi_offset 1, -8
 101              		.cfi_offset 8, -16
 102 0084 13040101 		addi	s0,sp,16
 103              		.cfi_def_cfa 8, 0
   9:src/_sem.cpp  ****     return 0;
GAS LISTING /tmp/cc7uAgBF.s 			page 4


 104              		.loc 1 9 17 is_stmt 1 discriminator 1
   9:src/_sem.cpp  ****     return 0;
 105              		.loc 1 9 22 is_stmt 0 discriminator 1
 106 0088 97000000 		call	_ZN4_sem5blockEv
 106      E7800000 
 107              	.LVL9:
  10:src/_sem.cpp  **** }
 108              		.loc 1 10 12 discriminator 1
 109 0090 13050000 		li	a0,0
  11:src/_sem.cpp  **** 
 110              		.loc 1 11 1 discriminator 1
 111 0094 83308100 		ld	ra,8(sp)
 112              		.cfi_restore 1
 113 0098 03340100 		ld	s0,0(sp)
 114              		.cfi_restore 8
 115              		.cfi_def_cfa 2, 16
 116 009c 13010101 		addi	sp,sp,16
 117              		.cfi_def_cfa_offset 0
 118 00a0 67800000 		jr	ra
 119              	.LVL10:
 120              	.L5:
   8:src/_sem.cpp  ****     if(--val<0) block();
 121              		.loc 1 8 24
 122 00a4 1305F0FF 		li	a0,-1
 123              	.LVL11:
 124 00a8 67800000 		ret
 125              		.cfi_endproc
 126              	.LFE29:
 128              		.align	2
 129              		.globl	_ZN4_sem7unblockEv
 131              	_ZN4_sem7unblockEv:
 132              	.LFB32:
  27:src/_sem.cpp  **** 
  28:src/_sem.cpp  **** void _sem::unblock(){
 133              		.loc 1 28 21 is_stmt 1
 134              		.cfi_startproc
 135              	.LVL12:
 136 00ac 130101FF 		addi	sp,sp,-16
 137              		.cfi_def_cfa_offset 16
 138 00b0 23341100 		sd	ra,8(sp)
 139 00b4 23308100 		sd	s0,0(sp)
 140              		.cfi_offset 1, -8
 141              		.cfi_offset 8, -16
 142 00b8 13040101 		addi	s0,sp,16
 143              		.cfi_def_cfa 8, 0
  29:src/_sem.cpp  ****     // Getting a blocked thread by a FIFO mechanism
  30:src/_sem.cpp  ****     TCB* temp = this->blocked.removeFirst();
 144              		.loc 1 30 5
 145              		.loc 1 30 42 is_stmt 0
 146 00bc 13058500 		addi	a0,a0,8
 147              	.LVL13:
 148 00c0 97000000 		call	_ZN4List11removeFirstEv@plt
 148      E7800000 
 149              	.LVL14:
  31:src/_sem.cpp  **** 
  32:src/_sem.cpp  ****     // Checking if unblock was called on an empty blocked list.
  33:src/_sem.cpp  ****     if (temp == nullptr) return;
GAS LISTING /tmp/cc7uAgBF.s 			page 5


 150              		.loc 1 33 5 is_stmt 1
 151 00c8 630A0500 		beqz	a0,.L12
  34:src/_sem.cpp  **** 
  35:src/_sem.cpp  ****     // Unblocking
  36:src/_sem.cpp  ****     temp->setBlocked(false);
 152              		.loc 1 36 5
 153              	.LVL15:
 154              	.LBB10:
 155              	.LBB11:
 156              		.loc 2 29 37
 157              		.loc 2 29 49 is_stmt 0
 158 00cc 93071000 		li	a5,1
 159 00d0 2324F502 		sw	a5,40(a0)
 160              	.LVL16:
 161              	.LBE11:
 162              	.LBE10:
  37:src/_sem.cpp  ****     Scheduler::put(temp);
 163              		.loc 1 37 5 is_stmt 1
 164              		.loc 1 37 19 is_stmt 0
 165 00d4 97000000 		call	_ZN9Scheduler3putEP3TCB@plt
 165      E7800000 
 166              	.LVL17:
 167              	.L12:
  38:src/_sem.cpp  **** }
 168              		.loc 1 38 1
 169 00dc 83308100 		ld	ra,8(sp)
 170              		.cfi_restore 1
 171 00e0 03340100 		ld	s0,0(sp)
 172              		.cfi_restore 8
 173              		.cfi_def_cfa 2, 16
 174 00e4 13010101 		addi	sp,sp,16
 175              		.cfi_def_cfa_offset 0
 176 00e8 67800000 		jr	ra
 177              		.cfi_endproc
 178              	.LFE32:
 180              		.align	2
 181              		.globl	_ZN4_sem6signalEv
 183              	_ZN4_sem6signalEv:
 184              	.LFB30:
  13:src/_sem.cpp  ****     if(closed) return -1;
 185              		.loc 1 13 20 is_stmt 1
 186              		.cfi_startproc
 187              	.LVL18:
  14:src/_sem.cpp  ****     if(++val <= 0) unblock();
 188              		.loc 1 14 5
  14:src/_sem.cpp  ****     if(++val <= 0) unblock();
 189              		.loc 1 14 8 is_stmt 0
 190 00ec 83474500 		lbu	a5,4(a0)
  14:src/_sem.cpp  ****     if(++val <= 0) unblock();
 191              		.loc 1 14 5
 192 00f0 63960704 		bnez	a5,.L17
  15:src/_sem.cpp  ****     return 0;
 193              		.loc 1 15 5 is_stmt 1
  15:src/_sem.cpp  ****     return 0;
 194              		.loc 1 15 10 is_stmt 0
 195 00f4 83270500 		lw	a5,0(a0)
  15:src/_sem.cpp  ****     return 0;
GAS LISTING /tmp/cc7uAgBF.s 			page 6


 196              		.loc 1 15 8
 197 00f8 9B871700 		addiw	a5,a5,1
 198 00fc 1B870700 		sext.w	a4,a5
  15:src/_sem.cpp  ****     return 0;
 199              		.loc 1 15 14
 200 0100 2320F500 		sw	a5,0(a0)
  15:src/_sem.cpp  ****     return 0;
 201              		.loc 1 15 5
 202 0104 6356E000 		blez	a4,.L23
  16:src/_sem.cpp  **** }
 203              		.loc 1 16 12
 204 0108 13050000 		li	a0,0
 205              	.LVL19:
  17:src/_sem.cpp  **** 
 206              		.loc 1 17 1
 207 010c 67800000 		ret
 208              	.LVL20:
 209              	.L23:
  13:src/_sem.cpp  ****     if(closed) return -1;
 210              		.loc 1 13 20 discriminator 1
 211 0110 130101FF 		addi	sp,sp,-16
 212              		.cfi_def_cfa_offset 16
 213 0114 23341100 		sd	ra,8(sp)
 214 0118 23308100 		sd	s0,0(sp)
 215              		.cfi_offset 1, -8
 216              		.cfi_offset 8, -16
 217 011c 13040101 		addi	s0,sp,16
 218              		.cfi_def_cfa 8, 0
  15:src/_sem.cpp  ****     return 0;
 219              		.loc 1 15 20 is_stmt 1 discriminator 1
  15:src/_sem.cpp  ****     return 0;
 220              		.loc 1 15 27 is_stmt 0 discriminator 1
 221 0120 97000000 		call	_ZN4_sem7unblockEv
 221      E7800000 
 222              	.LVL21:
  16:src/_sem.cpp  **** }
 223              		.loc 1 16 12 discriminator 1
 224 0128 13050000 		li	a0,0
  17:src/_sem.cpp  **** 
 225              		.loc 1 17 1 discriminator 1
 226 012c 83308100 		ld	ra,8(sp)
 227              		.cfi_restore 1
 228 0130 03340100 		ld	s0,0(sp)
 229              		.cfi_restore 8
 230              		.cfi_def_cfa 2, 16
 231 0134 13010101 		addi	sp,sp,16
 232              		.cfi_def_cfa_offset 0
 233 0138 67800000 		jr	ra
 234              	.LVL22:
 235              	.L17:
  14:src/_sem.cpp  ****     if(++val <= 0) unblock();
 236              		.loc 1 14 24
 237 013c 1305F0FF 		li	a0,-1
 238              	.LVL23:
 239 0140 67800000 		ret
 240              		.cfi_endproc
 241              	.LFE30:
GAS LISTING /tmp/cc7uAgBF.s 			page 7


 243              		.align	2
 244              		.globl	_ZN4_sem5closeEv
 246              	_ZN4_sem5closeEv:
 247              	.LFB33:
  39:src/_sem.cpp  **** 
  40:src/_sem.cpp  **** int _sem::close(){
 248              		.loc 1 40 18 is_stmt 1
 249              		.cfi_startproc
 250              	.LVL24:
 251 0144 130101FE 		addi	sp,sp,-32
 252              		.cfi_def_cfa_offset 32
 253 0148 233C1100 		sd	ra,24(sp)
 254 014c 23388100 		sd	s0,16(sp)
 255 0150 23349100 		sd	s1,8(sp)
 256              		.cfi_offset 1, -8
 257              		.cfi_offset 8, -16
 258              		.cfi_offset 9, -24
 259 0154 13040102 		addi	s0,sp,32
 260              		.cfi_def_cfa 8, 0
 261 0158 93040500 		mv	s1,a0
  41:src/_sem.cpp  ****     // We assume that closing a semaphore that has already been closed is not an error
  42:src/_sem.cpp  ****     // if (this->closed) return -1;
  43:src/_sem.cpp  **** 
  44:src/_sem.cpp  ****     this->closed = true;
 262              		.loc 1 44 5
 263              		.loc 1 44 18 is_stmt 0
 264 015c 93071000 		li	a5,1
 265 0160 2302F500 		sb	a5,4(a0)
 266              	.LVL25:
 267              	.L26:
  45:src/_sem.cpp  **** 
  46:src/_sem.cpp  ****     // Unblocking all the threads blocked on this semaphore
  47:src/_sem.cpp  ****     TCB* temp;
 268              		.loc 1 47 5 is_stmt 1
  48:src/_sem.cpp  ****     while((temp = this->blocked.removeFirst()) != nullptr){
 269              		.loc 1 48 5
 270              		.loc 1 48 48
 271              		.loc 1 48 44 is_stmt 0
 272 0164 13858400 		addi	a0,s1,8
 273 0168 97000000 		call	_ZN4List11removeFirstEv@plt
 273      E7800000 
 274              	.LVL26:
 275              		.loc 1 48 48
 276 0170 630C0500 		beqz	a0,.L25
  49:src/_sem.cpp  ****         temp->setBlocked(false);
 277              		.loc 1 49 9 is_stmt 1
 278              	.LVL27:
 279              	.LBB12:
 280              	.LBB13:
 281              		.loc 2 29 37
 282              		.loc 2 29 49 is_stmt 0
 283 0174 93071000 		li	a5,1
 284 0178 2324F502 		sw	a5,40(a0)
 285              	.LVL28:
 286              	.LBE13:
 287              	.LBE12:
  50:src/_sem.cpp  ****         Scheduler::put(temp);
GAS LISTING /tmp/cc7uAgBF.s 			page 8


 288              		.loc 1 50 9 is_stmt 1
 289              		.loc 1 50 23 is_stmt 0
 290 017c 97000000 		call	_ZN9Scheduler3putEP3TCB@plt
 290      E7800000 
 291              	.LVL29:
  48:src/_sem.cpp  ****     while((temp = this->blocked.removeFirst()) != nullptr){
 292              		.loc 1 48 5
 293 0184 6FF01FFE 		j	.L26
 294              	.LVL30:
 295              	.L25:
  51:src/_sem.cpp  ****     }
  52:src/_sem.cpp  ****     return 0;
 296              		.loc 1 52 5 is_stmt 1
  53:src/_sem.cpp  **** }
 297              		.loc 1 53 1 is_stmt 0
 298 0188 13050000 		li	a0,0
 299              	.LVL31:
 300 018c 83308101 		ld	ra,24(sp)
 301              		.cfi_restore 1
 302 0190 03340101 		ld	s0,16(sp)
 303              		.cfi_restore 8
 304              		.cfi_def_cfa 2, 32
 305 0194 83348100 		ld	s1,8(sp)
 306              		.cfi_restore 9
 307              	.LVL32:
 308 0198 13010102 		addi	sp,sp,32
 309              		.cfi_def_cfa_offset 0
 310 019c 67800000 		jr	ra
 311              		.cfi_endproc
 312              	.LFE33:
 314              	.Letext0:
 315              		.file 3 "src/../h/list.hpp"
 316              		.file 4 "src/../h/../lib/hw.h"
 317              		.file 5 "src/../h/_sem.hpp"
 318              		.file 6 "src/../h/../h/Scheduler.hpp"
 319              		.file 7 "src/../h/syscall_c.hpp"
GAS LISTING /tmp/cc7uAgBF.s 			page 9

