GAS LISTING /tmp/ccwIY8ae.s 			page 1


   1              		.file	"BufferKernel.cpp"
   2              		.option pic
   3              		.option norelax
   4              		.text
   5              	.Ltext0:
   6              		.align	2
   7              		.globl	_ZN12BufferKernel3getEv
   9              	_ZN12BufferKernel3getEv:
  10              	.LFB3:
  11              		.file 1 "src/BufferKernel.cpp"
   1:src/BufferKernel.cpp **** //
   2:src/BufferKernel.cpp **** // Created by os on 6/26/23.
   3:src/BufferKernel.cpp **** //
   4:src/BufferKernel.cpp **** 
   5:src/BufferKernel.cpp **** #include "../h/BufferKernel.hpp"
   6:src/BufferKernel.cpp **** 
   7:src/BufferKernel.cpp **** 
   8:src/BufferKernel.cpp **** char BufferKernel::get(){
  12              		.loc 1 8 25
  13              		.cfi_startproc
  14              	.LVL0:
  15 0000 130101FE 		addi	sp,sp,-32
  16              		.cfi_def_cfa_offset 32
  17 0004 233C1100 		sd	ra,24(sp)
  18 0008 23388100 		sd	s0,16(sp)
  19 000c 23349100 		sd	s1,8(sp)
  20 0010 23302101 		sd	s2,0(sp)
  21              		.cfi_offset 1, -8
  22              		.cfi_offset 8, -16
  23              		.cfi_offset 9, -24
  24              		.cfi_offset 18, -32
  25 0014 13040102 		addi	s0,sp,32
  26              		.cfi_def_cfa 8, 0
  27 0018 93040500 		mv	s1,a0
   9:src/BufferKernel.cpp **** 
  10:src/BufferKernel.cpp ****     sem_wait(charGetAv);
  28              		.loc 1 10 5
  29              		.loc 1 10 13 is_stmt 0
  30 001c 03350508 		ld	a0,128(a0)
  31              	.LVL1:
  32 0020 97000000 		call	_Z8sem_waitP4_sem@plt
  32      E7800000 
  33              	.LVL2:
  11:src/BufferKernel.cpp ****     sem_wait(mutexSem);
  34              		.loc 1 11 5 is_stmt 1
  35              		.loc 1 11 13 is_stmt 0
  36 0028 03B50407 		ld	a0,112(s1)
  37 002c 97000000 		call	_Z8sem_waitP4_sem@plt
  37      E7800000 
  38              	.LVL3:
  12:src/BufferKernel.cpp ****     char ret = buffer[head];
  39              		.loc 1 12 5 is_stmt 1
  40              		.loc 1 12 23 is_stmt 0
  41 0034 83A70400 		lw	a5,0(s1)
  42              		.loc 1 12 10
  43 0038 3387F400 		add	a4,s1,a5
  44 003c 0349C700 		lbu	s2,12(a4)
GAS LISTING /tmp/ccwIY8ae.s 			page 2


  45              	.LVL4:
  13:src/BufferKernel.cpp ****     head++;
  46              		.loc 1 13 5 is_stmt 1
  47              		.loc 1 13 9 is_stmt 0
  48 0040 9B871700 		addiw	a5,a5,1
  14:src/BufferKernel.cpp ****     head %= maxSize;
  49              		.loc 1 14 5 is_stmt 1
  50              		.loc 1 14 10 is_stmt 0
  51 0044 13074006 		li	a4,100
  52 0048 BBE7E702 		remw	a5,a5,a4
  53 004c 23A0F400 		sw	a5,0(s1)
  15:src/BufferKernel.cpp ****     size--;
  54              		.loc 1 15 5 is_stmt 1
  55 0050 83A78400 		lw	a5,8(s1)
  56              		.loc 1 15 9 is_stmt 0
  57 0054 9B87F7FF 		addiw	a5,a5,-1
  58 0058 23A4F400 		sw	a5,8(s1)
  16:src/BufferKernel.cpp **** 
  17:src/BufferKernel.cpp ****     sem_signal(mutexSem);
  59              		.loc 1 17 5 is_stmt 1
  60              		.loc 1 17 15 is_stmt 0
  61 005c 03B50407 		ld	a0,112(s1)
  62 0060 97000000 		call	_Z10sem_signalP4_sem@plt
  62      E7800000 
  63              	.LVL5:
  18:src/BufferKernel.cpp ****     sem_signal(spacePutAv);
  64              		.loc 1 18 5 is_stmt 1
  65              		.loc 1 18 15 is_stmt 0
  66 0068 03B58407 		ld	a0,120(s1)
  67 006c 97000000 		call	_Z10sem_signalP4_sem@plt
  67      E7800000 
  68              	.LVL6:
  19:src/BufferKernel.cpp **** 
  20:src/BufferKernel.cpp ****     return ret;
  69              		.loc 1 20 5 is_stmt 1
  21:src/BufferKernel.cpp **** }
  70              		.loc 1 21 1 is_stmt 0
  71 0074 13050900 		mv	a0,s2
  72 0078 83308101 		ld	ra,24(sp)
  73              		.cfi_restore 1
  74 007c 03340101 		ld	s0,16(sp)
  75              		.cfi_restore 8
  76              		.cfi_def_cfa 2, 32
  77 0080 83348100 		ld	s1,8(sp)
  78              		.cfi_restore 9
  79              	.LVL7:
  80 0084 03390100 		ld	s2,0(sp)
  81              		.cfi_restore 18
  82              	.LVL8:
  83 0088 13010102 		addi	sp,sp,32
  84              		.cfi_def_cfa_offset 0
  85 008c 67800000 		jr	ra
  86              		.cfi_endproc
  87              	.LFE3:
  89              		.align	2
  90              		.globl	_ZN12BufferKernel3putEc
  92              	_ZN12BufferKernel3putEc:
GAS LISTING /tmp/ccwIY8ae.s 			page 3


  93              	.LFB4:
  22:src/BufferKernel.cpp **** 
  23:src/BufferKernel.cpp **** void BufferKernel::put(char putChar){
  94              		.loc 1 23 37 is_stmt 1
  95              		.cfi_startproc
  96              	.LVL9:
  97 0090 130101FE 		addi	sp,sp,-32
  98              		.cfi_def_cfa_offset 32
  99 0094 233C1100 		sd	ra,24(sp)
 100 0098 23388100 		sd	s0,16(sp)
 101 009c 23349100 		sd	s1,8(sp)
 102 00a0 23302101 		sd	s2,0(sp)
 103              		.cfi_offset 1, -8
 104              		.cfi_offset 8, -16
 105              		.cfi_offset 9, -24
 106              		.cfi_offset 18, -32
 107 00a4 13040102 		addi	s0,sp,32
 108              		.cfi_def_cfa 8, 0
 109 00a8 93040500 		mv	s1,a0
 110 00ac 13890500 		mv	s2,a1
  24:src/BufferKernel.cpp **** 
  25:src/BufferKernel.cpp ****     sem_wait(spacePutAv);
 111              		.loc 1 25 5
 112              		.loc 1 25 13 is_stmt 0
 113 00b0 03358507 		ld	a0,120(a0)
 114              	.LVL10:
 115 00b4 97000000 		call	_Z8sem_waitP4_sem@plt
 115      E7800000 
 116              	.LVL11:
  26:src/BufferKernel.cpp ****     sem_wait(mutexSem);
 117              		.loc 1 26 5 is_stmt 1
 118              		.loc 1 26 13 is_stmt 0
 119 00bc 03B50407 		ld	a0,112(s1)
 120 00c0 97000000 		call	_Z8sem_waitP4_sem@plt
 120      E7800000 
 121              	.LVL12:
  27:src/BufferKernel.cpp ****     buffer[tail] = putChar;
 122              		.loc 1 27 5 is_stmt 1
 123              		.loc 1 27 12 is_stmt 0
 124 00c8 83A74400 		lw	a5,4(s1)
 125              		.loc 1 27 18
 126 00cc 3387F400 		add	a4,s1,a5
 127 00d0 23062701 		sb	s2,12(a4)
  28:src/BufferKernel.cpp ****     tail++;
 128              		.loc 1 28 5 is_stmt 1
 129              		.loc 1 28 9 is_stmt 0
 130 00d4 9B871700 		addiw	a5,a5,1
  29:src/BufferKernel.cpp ****     tail %= maxSize;
 131              		.loc 1 29 5 is_stmt 1
 132              		.loc 1 29 10 is_stmt 0
 133 00d8 13074006 		li	a4,100
 134 00dc BBE7E702 		remw	a5,a5,a4
 135 00e0 23A2F400 		sw	a5,4(s1)
  30:src/BufferKernel.cpp ****     size++;
 136              		.loc 1 30 5 is_stmt 1
 137 00e4 83A78400 		lw	a5,8(s1)
 138              		.loc 1 30 9 is_stmt 0
GAS LISTING /tmp/ccwIY8ae.s 			page 4


 139 00e8 9B871700 		addiw	a5,a5,1
 140 00ec 23A4F400 		sw	a5,8(s1)
  31:src/BufferKernel.cpp ****     sem_signal(mutexSem);
 141              		.loc 1 31 5 is_stmt 1
 142              		.loc 1 31 15 is_stmt 0
 143 00f0 03B50407 		ld	a0,112(s1)
 144 00f4 97000000 		call	_Z10sem_signalP4_sem@plt
 144      E7800000 
 145              	.LVL13:
  32:src/BufferKernel.cpp ****     sem_signal(charGetAv);
 146              		.loc 1 32 5 is_stmt 1
 147              		.loc 1 32 15 is_stmt 0
 148 00fc 03B50408 		ld	a0,128(s1)
 149 0100 97000000 		call	_Z10sem_signalP4_sem@plt
 149      E7800000 
 150              	.LVL14:
  33:src/BufferKernel.cpp **** }...
 151              		.loc 1 33 1
 152 0108 83308101 		ld	ra,24(sp)
 153              		.cfi_restore 1
 154 010c 03340101 		ld	s0,16(sp)
 155              		.cfi_restore 8
 156              		.cfi_def_cfa 2, 32
 157 0110 83348100 		ld	s1,8(sp)
 158              		.cfi_restore 9
 159              	.LVL15:
 160 0114 03390100 		ld	s2,0(sp)
 161              		.cfi_restore 18
 162 0118 13010102 		addi	sp,sp,32
 163              		.cfi_def_cfa_offset 0
 164 011c 67800000 		jr	ra
 165              		.cfi_endproc
 166              	.LFE4:
 168              	.Letext0:
 169              		.file 2 "src/../h/../lib/hw.h"
 170              		.file 3 "src/../h/syscall_c.hpp"
 171              		.file 4 "src/../h/BufferKernel.hpp"
GAS LISTING /tmp/ccwIY8ae.s 			page 5

