GAS LISTING /tmp/ccrAem8Q.s 			page 1


   1              		.file	"ConsoleKernel.cpp"
   2              		.option pic
   3              		.option norelax
   4              		.text
   5              	.Ltext0:
   6              		.align	2
   7              		.globl	_ZN13ConsoleKernel13getCharKernelEPv
   9              	_ZN13ConsoleKernel13getCharKernelEPv:
  10              	.LFB33:
  11              		.file 1 "src/ConsoleKernel.cpp"
   1:src/ConsoleKernel.cpp **** //
   2:src/ConsoleKernel.cpp **** // Created by os on 6/26/23.
   3:src/ConsoleKernel.cpp **** //
   4:src/ConsoleKernel.cpp **** 
   5:src/ConsoleKernel.cpp **** #include "../h/ConsoleKernel.hpp"
   6:src/ConsoleKernel.cpp **** #include "../h/TCB.hpp"
   7:src/ConsoleKernel.cpp **** 
   8:src/ConsoleKernel.cpp **** ConsoleKernel* ConsoleKernel::instance = nullptr;
   9:src/ConsoleKernel.cpp **** 
  10:src/ConsoleKernel.cpp **** // Thread function for getting the character from the console and putting it in the input buffer.
  11:src/ConsoleKernel.cpp **** // Console -> input buffer
  12:src/ConsoleKernel.cpp **** void ConsoleKernel::getCharKernel(void* notUsed){
  12              		.loc 1 12 49
  13              		.cfi_startproc
  14              		.cfi_personality 0x9b,DW.ref.__gxx_personality_v0
  15              		.cfi_lsda 0x1b,.LLSDA33
  16              	.LVL0:
  13:src/ConsoleKernel.cpp ****     while(!(TCB::running->isFinished())){
  17              		.loc 1 13 5
  18              		.loc 1 13 11
  19              		.loc 1 13 37 is_stmt 0
  20 0000 97070000 		la	a5,_ZN3TCB7runningE
  20      83B70700 
  21 0008 83B70700 		ld	a5,0(a5)
  22              	.LVL1:
  23              	.LBB31:
  24              	.LBB32:
  25              		.file 2 "src/../h/TCB.hpp"
   1:src/../h/TCB.hpp **** //
   2:src/../h/TCB.hpp **** // Created by os on 6/20/23.
   3:src/../h/TCB.hpp **** //
   4:src/../h/TCB.hpp **** 
   5:src/../h/TCB.hpp **** #ifndef PROJECT_BASE_V1_1_TCB_HPP
   6:src/../h/TCB.hpp **** #define PROJECT_BASE_V1_1_TCB_HPP
   7:src/../h/TCB.hpp **** 
   8:src/../h/TCB.hpp **** #include "../lib/hw.h"
   9:src/../h/TCB.hpp **** #include "syscall_c.hpp"
  10:src/../h/TCB.hpp **** #include "../h/Scheduler.hpp"
  11:src/../h/TCB.hpp **** #include "list.hpp"
  12:src/../h/TCB.hpp **** 
  13:src/../h/TCB.hpp **** // ideja za klasu preuzeta sa vezbi
  14:src/../h/TCB.hpp **** class TCB {
  15:src/../h/TCB.hpp **** public:
  16:src/../h/TCB.hpp ****     TCB* next;
  17:src/../h/TCB.hpp ****     enum State{FINISHED, RUNNING, BLOCKED, SLEEPING};
  18:src/../h/TCB.hpp ****     using Body = void(*)(void*);
  19:src/../h/TCB.hpp ****     using Argument = void*;
GAS LISTING /tmp/ccrAem8Q.s 			page 2


  20:src/../h/TCB.hpp **** 
  21:src/../h/TCB.hpp ****     static TCB* createThread(Body body, Argument argument, uint8* st);
  22:src/../h/TCB.hpp **** 
  23:src/../h/TCB.hpp ****     // Finished
  24:src/../h/TCB.hpp ****     bool isFinished() const{ return this->state == FINISHED; }
  26              		.loc 2 24 30 is_stmt 1
  27              		.loc 2 24 43 is_stmt 0
  28 000c 83A78702 		lw	a5,40(a5)
  29              	.LVL2:
  30              	.LBE32:
  31              	.LBE31:
  32              		.loc 1 13 11
  33 0010 638A0724 		beqz	a5,.L16
  12:src/ConsoleKernel.cpp ****     while(!(TCB::running->isFinished())){
  34              		.loc 1 12 49
  35 0014 130101FE 		addi	sp,sp,-32
  36              		.cfi_def_cfa_offset 32
  37 0018 233C1100 		sd	ra,24(sp)
  38 001c 23388100 		sd	s0,16(sp)
  39 0020 23349100 		sd	s1,8(sp)
  40 0024 23302101 		sd	s2,0(sp)
  41              		.cfi_offset 1, -8
  42              		.cfi_offset 8, -16
  43              		.cfi_offset 9, -24
  44              		.cfi_offset 18, -32
  45 0028 13040102 		addi	s0,sp,32
  46              		.cfi_def_cfa 8, 0
  47 002c 6F008001 		j	.L12
  48              	.LVL3:
  49              	.L6:
  50              		.loc 1 13 5 is_stmt 1
  51              		.loc 1 13 11
  52              		.loc 1 13 37 is_stmt 0
  53 0030 97070000 		la	a5,_ZN3TCB7runningE
  53      83B70700 
  54 0038 83B70700 		ld	a5,0(a5)
  55              	.LVL4:
  56              	.LBB34:
  57              	.LBB33:
  58              		.loc 2 24 30 is_stmt 1
  59              		.loc 2 24 43 is_stmt 0
  60 003c 83A78702 		lw	a5,40(a5)
  61              	.LVL5:
  62              	.LBE33:
  63              	.LBE34:
  64              		.loc 1 13 11
  65 0040 63860720 		beqz	a5,.L1
  66              	.L12:
  14:src/ConsoleKernel.cpp ****         sem_wait(ConsoleKernel::get()->getSem);
  67              		.loc 1 14 9 is_stmt 1
  68              	.LBB35:
  69              	.LBB36:
  70              		.file 3 "src/../h/ConsoleKernel.hpp"
   1:src/../h/ConsoleKernel.hpp **** //
   2:src/../h/ConsoleKernel.hpp **** // Created by os on 6/26/23.
   3:src/../h/ConsoleKernel.hpp **** //
   4:src/../h/ConsoleKernel.hpp **** 
GAS LISTING /tmp/ccrAem8Q.s 			page 3


   5:src/../h/ConsoleKernel.hpp **** #ifndef PROJECT_BASE_V1_1_CONSOLEKERNEL_HPP
   6:src/../h/ConsoleKernel.hpp **** #define PROJECT_BASE_V1_1_CONSOLEKERNEL_HPP
   7:src/../h/ConsoleKernel.hpp **** #include "../lib/hw.h"
   8:src/../h/ConsoleKernel.hpp **** #include "../h/BufferKernel.hpp"
   9:src/../h/ConsoleKernel.hpp **** #include "syscall_c.hpp"
  10:src/../h/ConsoleKernel.hpp **** 
  11:src/../h/ConsoleKernel.hpp **** 
  12:src/../h/ConsoleKernel.hpp **** class ConsoleKernel{
  13:src/../h/ConsoleKernel.hpp **** private:
  14:src/../h/ConsoleKernel.hpp ****     static ConsoleKernel* instance;
  15:src/../h/ConsoleKernel.hpp ****     ConsoleKernel(){
  16:src/../h/ConsoleKernel.hpp ****         sem_open(&getSem,0);
  17:src/../h/ConsoleKernel.hpp ****         sem_open(&putSem,0);
  18:src/../h/ConsoleKernel.hpp ****     }
  19:src/../h/ConsoleKernel.hpp **** public:
  20:src/../h/ConsoleKernel.hpp ****     BufferKernel input; // Console -> input buffer
  21:src/../h/ConsoleKernel.hpp ****     BufferKernel output; // Output buffer -> console
  22:src/../h/ConsoleKernel.hpp **** 
  23:src/../h/ConsoleKernel.hpp ****     // These semaphores are used to prevent busy wait
  24:src/../h/ConsoleKernel.hpp ****     sem_t getSem;
  25:src/../h/ConsoleKernel.hpp ****     sem_t putSem;
  26:src/../h/ConsoleKernel.hpp **** 
  27:src/../h/ConsoleKernel.hpp ****     // Functions of threads that will work with hardware
  28:src/../h/ConsoleKernel.hpp ****     static void getCharKernel(void*);
  29:src/../h/ConsoleKernel.hpp ****     static void putCharKernel(void*);
  30:src/../h/ConsoleKernel.hpp **** 
  31:src/../h/ConsoleKernel.hpp ****     // Functions of system calls
  32:src/../h/ConsoleKernel.hpp ****     static void putc(char);
  33:src/../h/ConsoleKernel.hpp ****     static char getc();
  34:src/../h/ConsoleKernel.hpp **** 
  35:src/../h/ConsoleKernel.hpp ****     // Singleton mechanism
  36:src/../h/ConsoleKernel.hpp ****     static ConsoleKernel* get(){
  37:src/../h/ConsoleKernel.hpp ****         if(!instance) instance = new ConsoleKernel();
  71              		.loc 3 37 9
  72              		.loc 3 37 12 is_stmt 0
  73 0044 97070000 		ld	a5,.LANCHOR0
  73      83B70700 
  74              		.loc 3 37 9
  75 004c 638E0700 		beqz	a5,.L17
  76              	.L3:
  38:src/../h/ConsoleKernel.hpp ****         return instance;
  77              		.loc 3 38 9 is_stmt 1
  78              	.LBE36:
  79              	.LBE35:
  80              		.loc 1 14 17 is_stmt 0
  81 0050 97070000 		ld	a5,.LANCHOR0
  81      83B70700 
  82 0058 03B50711 		ld	a0,272(a5)
  83              	.LEHB0:
  84 005c 97000000 		call	_Z8sem_waitP4_sem@plt
  84      E7800000 
  85              	.LVL6:
  86 0064 6F008017 		j	.L4
  87              	.L17:
  88              	.LBB47:
  89              	.LBB46:
  37:src/../h/ConsoleKernel.hpp ****         return instance;
GAS LISTING /tmp/ccrAem8Q.s 			page 4


  90              		.loc 3 37 23 is_stmt 1
  37:src/../h/ConsoleKernel.hpp ****         return instance;
  91              		.loc 3 37 52 is_stmt 0
  92 0068 13050012 		li	a0,288
  93 006c 97000000 		call	_Znwm@plt
  93      E7800000 
  94              	.LVL7:
  95              	.LEHE0:
  96 0074 93040500 		mv	s1,a0
  97              	.LVL8:
  98              	.LBB37:
  99              	.LBB38:
 100              	.LBB39:
 101              	.LBB40:
 102              	.LBB41:
 103              	.LBB42:
 104              		.file 4 "src/../h/../h/BufferKernel.hpp"
   1:src/../h/../h/BufferKernel.hpp **** //
   2:src/../h/../h/BufferKernel.hpp **** // Created by os on 6/26/23.
   3:src/../h/../h/BufferKernel.hpp **** //
   4:src/../h/../h/BufferKernel.hpp **** 
   5:src/../h/../h/BufferKernel.hpp **** #ifndef PROJECT_BASE_V1_1_MYBUFFER_HPP
   6:src/../h/../h/BufferKernel.hpp **** #define PROJECT_BASE_V1_1_MYBUFFER_HPP
   7:src/../h/../h/BufferKernel.hpp **** #include "syscall_c.hpp"
   8:src/../h/../h/BufferKernel.hpp **** 
   9:src/../h/../h/BufferKernel.hpp **** class BufferKernel{
  10:src/../h/../h/BufferKernel.hpp **** private:
  11:src/../h/../h/BufferKernel.hpp ****     int head;
  12:src/../h/../h/BufferKernel.hpp ****     int tail;
  13:src/../h/../h/BufferKernel.hpp ****     int size;
  14:src/../h/../h/BufferKernel.hpp ****     static const int maxSize = 100;
  15:src/../h/../h/BufferKernel.hpp ****     char buffer[maxSize];
  16:src/../h/../h/BufferKernel.hpp **** 
  17:src/../h/../h/BufferKernel.hpp ****     // mutexSem is used to prevent multiple
  18:src/../h/../h/BufferKernel.hpp ****     // threads from accessing the same getc and putc functions.
  19:src/../h/../h/BufferKernel.hpp ****     // This won't happen because the system is in the privileged mode
  20:src/../h/../h/BufferKernel.hpp ****     // in the only instance where buffer is used which is for Console threads.
  21:src/../h/../h/BufferKernel.hpp ****     // However, putting this semaphore in a buffer is essential if it gets used
  22:src/../h/../h/BufferKernel.hpp ****     // in user mode where asynchronous dispatches are possible.
  23:src/../h/../h/BufferKernel.hpp ****     sem_t mutexSem;
  24:src/../h/../h/BufferKernel.hpp **** 
  25:src/../h/../h/BufferKernel.hpp ****     // spacePutAv and charGetAv are used to prevent invalid locations
  26:src/../h/../h/BufferKernel.hpp ****     // when operating with buffer in putc and getc
  27:src/../h/../h/BufferKernel.hpp ****     sem_t spacePutAv;
  28:src/../h/../h/BufferKernel.hpp ****     sem_t charGetAv;
  29:src/../h/../h/BufferKernel.hpp **** public:
  30:src/../h/../h/BufferKernel.hpp ****     BufferKernel(): head(0), tail(0), size(0){
 105              		.loc 4 30 45
 106 0078 23200500 		sw	zero,0(a0)
 107 007c 23220500 		sw	zero,4(a0)
 108 0080 23240500 		sw	zero,8(a0)
  31:src/../h/../h/BufferKernel.hpp ****         sem_open(&mutexSem, 1);
 109              		.loc 4 31 9 is_stmt 1
 110              		.loc 4 31 17 is_stmt 0
 111 0084 93051000 		li	a1,1
 112 0088 13050507 		addi	a0,a0,112
 113              	.LEHB1:
GAS LISTING /tmp/ccrAem8Q.s 			page 5


 114 008c 97000000 		call	_Z8sem_openPP4_semj@plt
 114      E7800000 
 115              	.LVL9:
  32:src/../h/../h/BufferKernel.hpp ****         sem_open(&spacePutAv, maxSize);
 116              		.loc 4 32 9 is_stmt 1
 117              		.loc 4 32 17 is_stmt 0
 118 0094 93054006 		li	a1,100
 119 0098 13858407 		addi	a0,s1,120
 120 009c 97000000 		call	_Z8sem_openPP4_semj@plt
 120      E7800000 
 121              	.LVL10:
  33:src/../h/../h/BufferKernel.hpp ****         sem_open(&charGetAv, 0);
 122              		.loc 4 33 9 is_stmt 1
 123              		.loc 4 33 17 is_stmt 0
 124 00a4 93050000 		li	a1,0
 125 00a8 13850408 		addi	a0,s1,128
 126 00ac 97000000 		call	_Z8sem_openPP4_semj@plt
 126      E7800000 
 127              	.LVL11:
 128              	.LBE42:
 129              	.LBE41:
 130              	.LBE40:
 131              	.LBB43:
 132              	.LBB44:
 133              	.LBB45:
  30:src/../h/../h/BufferKernel.hpp ****         sem_open(&mutexSem, 1);
 134              		.loc 4 30 45
 135 00b4 23A40408 		sw	zero,136(s1)
 136 00b8 23A60408 		sw	zero,140(s1)
 137 00bc 23A80408 		sw	zero,144(s1)
  31:src/../h/../h/BufferKernel.hpp ****         sem_open(&spacePutAv, maxSize);
 138              		.loc 4 31 9 is_stmt 1
  31:src/../h/../h/BufferKernel.hpp ****         sem_open(&spacePutAv, maxSize);
 139              		.loc 4 31 17 is_stmt 0
 140 00c0 93051000 		li	a1,1
 141 00c4 1385840F 		addi	a0,s1,248
 142 00c8 97000000 		call	_Z8sem_openPP4_semj@plt
 142      E7800000 
 143              	.LVL12:
  32:src/../h/../h/BufferKernel.hpp ****         sem_open(&charGetAv, 0);
 144              		.loc 4 32 9 is_stmt 1
  32:src/../h/../h/BufferKernel.hpp ****         sem_open(&charGetAv, 0);
 145              		.loc 4 32 17 is_stmt 0
 146 00d0 93054006 		li	a1,100
 147 00d4 13850410 		addi	a0,s1,256
 148 00d8 97000000 		call	_Z8sem_openPP4_semj@plt
 148      E7800000 
 149              	.LVL13:
 150              		.loc 4 33 9 is_stmt 1
 151              		.loc 4 33 17 is_stmt 0
 152 00e0 93050000 		li	a1,0
 153 00e4 13858410 		addi	a0,s1,264
 154 00e8 97000000 		call	_Z8sem_openPP4_semj@plt
 154      E7800000 
 155              	.LVL14:
 156              	.LBE45:
 157              	.LBE44:
GAS LISTING /tmp/ccrAem8Q.s 			page 6


 158              	.LBE43:
  16:src/../h/ConsoleKernel.hpp ****         sem_open(&putSem,0);
 159              		.loc 3 16 9 is_stmt 1
  16:src/../h/ConsoleKernel.hpp ****         sem_open(&putSem,0);
 160              		.loc 3 16 17 is_stmt 0
 161 00f0 93050000 		li	a1,0
 162 00f4 13850411 		addi	a0,s1,272
 163 00f8 97000000 		call	_Z8sem_openPP4_semj@plt
 163      E7800000 
 164              	.LVL15:
  17:src/../h/ConsoleKernel.hpp ****     }
 165              		.loc 3 17 9 is_stmt 1
  17:src/../h/ConsoleKernel.hpp ****     }
 166              		.loc 3 17 17 is_stmt 0
 167 0100 93050000 		li	a1,0
 168 0104 13858411 		addi	a0,s1,280
 169 0108 97000000 		call	_Z8sem_openPP4_semj@plt
 169      E7800000 
 170              	.LVL16:
 171              	.LEHE1:
 172              	.LBE39:
 173              	.LBE38:
 174              	.LBE37:
  37:src/../h/ConsoleKernel.hpp ****         return instance;
 175              		.loc 3 37 32
 176 0110 97070000 		sd	s1,.LANCHOR0,a5
 176      23B09700 
 177 0118 6FF09FF3 		j	.L3
 178              	.LVL17:
 179              	.L9:
 180 011c 13090500 		mv	s2,a0
  37:src/../h/ConsoleKernel.hpp ****         return instance;
 181              		.loc 3 37 52
 182 0120 13850400 		mv	a0,s1
 183 0124 97000000 		call	_ZdlPv@plt
 183      E7800000 
 184              	.LVL18:
 185 012c 13050900 		mv	a0,s2
 186              	.LEHB2:
 187 0130 97000000 		call	_Unwind_Resume@plt
 187      E7800000 
 188              	.LVL19:
 189              	.LEHE2:
 190              	.L18:
 191              	.LBE46:
 192              	.LBE47:
 193              	.LBB48:
 194              	.LBB49:
 195              	.LBB50:
 196              	.LBB51:
 197              	.LBB52:
 198              	.LBB53:
 199              	.LBB54:
 200              	.LBB55:
  32:src/../h/../h/BufferKernel.hpp ****         sem_open(&charGetAv, 0);
 201              		.loc 4 32 9 is_stmt 1
  32:src/../h/../h/BufferKernel.hpp ****         sem_open(&charGetAv, 0);
GAS LISTING /tmp/ccrAem8Q.s 			page 7


 202              		.loc 4 32 17 is_stmt 0
 203 0138 93054006 		li	a1,100
 204 013c 13858407 		addi	a0,s1,120
 205              	.LEHB3:
 206 0140 97000000 		call	_Z8sem_openPP4_semj@plt
 206      E7800000 
 207              	.LVL20:
 208              		.loc 4 33 9 is_stmt 1
 209              		.loc 4 33 17 is_stmt 0
 210 0148 93050000 		li	a1,0
 211 014c 13850408 		addi	a0,s1,128
 212 0150 97000000 		call	_Z8sem_openPP4_semj@plt
 212      E7800000 
 213              	.LVL21:
 214              	.LBE55:
 215              	.LBE54:
 216              	.LBE53:
 217              	.LBB58:
 218              	.LBB59:
 219              	.LBB60:
  30:src/../h/../h/BufferKernel.hpp ****         sem_open(&mutexSem, 1);
 220              		.loc 4 30 45
 221 0158 23A40408 		sw	zero,136(s1)
 222 015c 23A60408 		sw	zero,140(s1)
 223 0160 23A80408 		sw	zero,144(s1)
  31:src/../h/../h/BufferKernel.hpp ****         sem_open(&spacePutAv, maxSize);
 224              		.loc 4 31 9 is_stmt 1
  31:src/../h/../h/BufferKernel.hpp ****         sem_open(&spacePutAv, maxSize);
 225              		.loc 4 31 17 is_stmt 0
 226 0164 93051000 		li	a1,1
 227 0168 1385840F 		addi	a0,s1,248
 228 016c 97000000 		call	_Z8sem_openPP4_semj@plt
 228      E7800000 
 229              	.LVL22:
  32:src/../h/../h/BufferKernel.hpp ****         sem_open(&charGetAv, 0);
 230              		.loc 4 32 9 is_stmt 1
  32:src/../h/../h/BufferKernel.hpp ****         sem_open(&charGetAv, 0);
 231              		.loc 4 32 17 is_stmt 0
 232 0174 93054006 		li	a1,100
 233 0178 13850410 		addi	a0,s1,256
 234 017c 97000000 		call	_Z8sem_openPP4_semj@plt
 234      E7800000 
 235              	.LVL23:
 236              		.loc 4 33 9 is_stmt 1
 237              		.loc 4 33 17 is_stmt 0
 238 0184 93050000 		li	a1,0
 239 0188 13858410 		addi	a0,s1,264
 240 018c 97000000 		call	_Z8sem_openPP4_semj@plt
 240      E7800000 
 241              	.LVL24:
 242              	.LBE60:
 243              	.LBE59:
 244              	.LBE58:
  16:src/../h/ConsoleKernel.hpp ****         sem_open(&putSem,0);
 245              		.loc 3 16 9 is_stmt 1
  16:src/../h/ConsoleKernel.hpp ****         sem_open(&putSem,0);
 246              		.loc 3 16 17 is_stmt 0
GAS LISTING /tmp/ccrAem8Q.s 			page 8


 247 0194 93050000 		li	a1,0
 248 0198 13850411 		addi	a0,s1,272
 249 019c 97000000 		call	_Z8sem_openPP4_semj@plt
 249      E7800000 
 250              	.LVL25:
  17:src/../h/ConsoleKernel.hpp ****     }
 251              		.loc 3 17 9 is_stmt 1
  17:src/../h/ConsoleKernel.hpp ****     }
 252              		.loc 3 17 17 is_stmt 0
 253 01a4 93050000 		li	a1,0
 254 01a8 13858411 		addi	a0,s1,280
 255 01ac 97000000 		call	_Z8sem_openPP4_semj@plt
 255      E7800000 
 256              	.LVL26:
 257              	.LEHE3:
 258              	.LBE52:
 259              	.LBE51:
 260              	.LBE50:
  37:src/../h/ConsoleKernel.hpp ****         return instance;
 261              		.loc 3 37 32
 262 01b4 97070000 		sd	s1,.LANCHOR0,a5
 262      23B09700 
 263              	.L7:
 264              		.loc 3 38 9 is_stmt 1
 265              	.LBE49:
 266              	.LBE48:
  15:src/ConsoleKernel.cpp ****         while (  *((char*)CONSOLE_STATUS) & CONSOLE_RX_STATUS_BIT )
  16:src/ConsoleKernel.cpp ****             ConsoleKernel::get()->input.put(*((char*)CONSOLE_RX_DATA));
 267              		.loc 1 16 44 is_stmt 0
 268 01bc 97070000 		la	a5,CONSOLE_RX_DATA
 268      83B70700 
 269 01c4 83B70700 		ld	a5,0(a5)
 270 01c8 83C50700 		lbu	a1,0(a5)
 271 01cc 17050000 		ld	a0,.LANCHOR0
 271      03350500 
 272              	.LEHB4:
 273 01d4 97000000 		call	_ZN12BufferKernel3putEc@plt
 273      E7800000 
 274              	.LVL27:
 275              	.L4:
  15:src/ConsoleKernel.cpp ****         while (  *((char*)CONSOLE_STATUS) & CONSOLE_RX_STATUS_BIT )
 276              		.loc 1 15 9 is_stmt 1
  15:src/ConsoleKernel.cpp ****         while (  *((char*)CONSOLE_STATUS) & CONSOLE_RX_STATUS_BIT )
 277              		.loc 1 15 45
  15:src/ConsoleKernel.cpp ****         while (  *((char*)CONSOLE_STATUS) & CONSOLE_RX_STATUS_BIT )
 278              		.loc 1 15 18 is_stmt 0
 279 01dc 97070000 		la	a5,CONSOLE_STATUS
 279      83B70700 
 280 01e4 83B70700 		ld	a5,0(a5)
 281 01e8 83C70700 		lbu	a5,0(a5)
  15:src/ConsoleKernel.cpp ****         while (  *((char*)CONSOLE_STATUS) & CONSOLE_RX_STATUS_BIT )
 282              		.loc 1 15 45
 283 01ec 93F71700 		andi	a5,a5,1
 284 01f0 E38007E4 		beqz	a5,.L6
 285              		.loc 1 16 13 is_stmt 1
 286              	.LBB66:
 287              	.LBB65:
GAS LISTING /tmp/ccrAem8Q.s 			page 9


  37:src/../h/ConsoleKernel.hpp ****         return instance;
 288              		.loc 3 37 9
  37:src/../h/ConsoleKernel.hpp ****         return instance;
 289              		.loc 3 37 12 is_stmt 0
 290 01f4 97070000 		ld	a5,.LANCHOR0
 290      83B70700 
  37:src/../h/ConsoleKernel.hpp ****         return instance;
 291              		.loc 3 37 9
 292 01fc E39007FC 		bnez	a5,.L7
  37:src/../h/ConsoleKernel.hpp ****         return instance;
 293              		.loc 3 37 23 is_stmt 1
  37:src/../h/ConsoleKernel.hpp ****         return instance;
 294              		.loc 3 37 52 is_stmt 0
 295 0200 13050012 		li	a0,288
 296 0204 97000000 		call	_Znwm@plt
 296      E7800000 
 297              	.LVL28:
 298              	.LEHE4:
 299 020c 93040500 		mv	s1,a0
 300              	.LVL29:
 301              	.LBB64:
 302              	.LBB63:
 303              	.LBB62:
 304              	.LBB61:
 305              	.LBB57:
 306              	.LBB56:
  30:src/../h/../h/BufferKernel.hpp ****         sem_open(&mutexSem, 1);
 307              		.loc 4 30 45
 308 0210 23200500 		sw	zero,0(a0)
 309 0214 23220500 		sw	zero,4(a0)
 310 0218 23240500 		sw	zero,8(a0)
  31:src/../h/../h/BufferKernel.hpp ****         sem_open(&spacePutAv, maxSize);
 311              		.loc 4 31 9 is_stmt 1
  31:src/../h/../h/BufferKernel.hpp ****         sem_open(&spacePutAv, maxSize);
 312              		.loc 4 31 17 is_stmt 0
 313 021c 93051000 		li	a1,1
 314 0220 13050507 		addi	a0,a0,112
 315              	.LEHB5:
 316 0224 97000000 		call	_Z8sem_openPP4_semj@plt
 316      E7800000 
 317              	.LVL30:
 318              	.LEHE5:
 319 022c 6FF0DFF0 		j	.L18
 320              	.LVL31:
 321              	.L10:
 322 0230 13090500 		mv	s2,a0
 323              	.LBE56:
 324              	.LBE57:
 325              	.LBE61:
 326              	.LBE62:
 327              	.LBE63:
 328              	.LBE64:
  37:src/../h/ConsoleKernel.hpp ****         return instance;
 329              		.loc 3 37 52
 330 0234 13850400 		mv	a0,s1
 331 0238 97000000 		call	_ZdlPv@plt
 331      E7800000 
GAS LISTING /tmp/ccrAem8Q.s 			page 10


 332              	.LVL32:
 333 0240 13050900 		mv	a0,s2
 334              	.LEHB6:
 335 0244 97000000 		call	_Unwind_Resume@plt
 335      E7800000 
 336              	.LVL33:
 337              	.LEHE6:
 338              	.L1:
 339              	.LBE65:
 340              	.LBE66:
  17:src/ConsoleKernel.cpp ****     }
  18:src/ConsoleKernel.cpp **** }
 341              		.loc 1 18 1
 342 024c 83308101 		ld	ra,24(sp)
 343              		.cfi_restore 1
 344 0250 03340101 		ld	s0,16(sp)
 345              		.cfi_restore 8
 346              		.cfi_def_cfa 2, 32
 347 0254 83348100 		ld	s1,8(sp)
 348              		.cfi_restore 9
 349 0258 03390100 		ld	s2,0(sp)
 350              		.cfi_restore 18
 351 025c 13010102 		addi	sp,sp,32
 352              		.cfi_def_cfa_offset 0
 353 0260 67800000 		jr	ra
 354              	.LVL34:
 355              	.L16:
 356 0264 67800000 		ret
 357              		.cfi_endproc
 358              	.LFE33:
 359              		.globl	__gxx_personality_v0
 360              		.section	.gcc_except_table,"a",@progbits
 361              	.LLSDA33:
 362 0000 FF       		.byte	0xff
 363 0001 FF       		.byte	0xff
 364 0002 03       		.byte	0x3
 365 0003 5B       		.byte	0x5b
 366 0004 00000000 		.4byte	.LEHB0-.LFB33
 367 0008 00000000 		.4byte	.LEHE0-.LEHB0
 368 000c 00000000 		.4byte	0
 369 0010 00       		.byte	0
 370 0011 00000000 		.4byte	.LEHB1-.LFB33
 371 0015 00000000 		.4byte	.LEHE1-.LEHB1
 372 0019 00000000 		.4byte	.L9-.LFB33
 373 001d 00       		.byte	0
 374 001e 00000000 		.4byte	.LEHB2-.LFB33
 375 0022 00000000 		.4byte	.LEHE2-.LEHB2
 376 0026 00000000 		.4byte	0
 377 002a 00       		.byte	0
 378 002b 00000000 		.4byte	.LEHB3-.LFB33
 379 002f 00000000 		.4byte	.LEHE3-.LEHB3
 380 0033 00000000 		.4byte	.L10-.LFB33
 381 0037 00       		.byte	0
 382 0038 00000000 		.4byte	.LEHB4-.LFB33
 383 003c 00000000 		.4byte	.LEHE4-.LEHB4
 384 0040 00000000 		.4byte	0
 385 0044 00       		.byte	0
GAS LISTING /tmp/ccrAem8Q.s 			page 11


 386 0045 00000000 		.4byte	.LEHB5-.LFB33
 387 0049 00000000 		.4byte	.LEHE5-.LEHB5
 388 004d 00000000 		.4byte	.L10-.LFB33
 389 0051 00       		.byte	0
 390 0052 00000000 		.4byte	.LEHB6-.LFB33
 391 0056 00000000 		.4byte	.LEHE6-.LEHB6
 392 005a 00000000 		.4byte	0
 393 005e 00       		.byte	0
 394              		.text
 396              		.align	2
 397              		.globl	_ZN13ConsoleKernel13putCharKernelEPv
 399              	_ZN13ConsoleKernel13putCharKernelEPv:
 400              	.LFB34:
  19:src/ConsoleKernel.cpp **** 
  20:src/ConsoleKernel.cpp **** // Thread function for getting the character from the output buffer and putting it on the console.
  21:src/ConsoleKernel.cpp **** // Output buffer -> console
  22:src/ConsoleKernel.cpp **** void ConsoleKernel::putCharKernel(void* notUsed){
 401              		.loc 1 22 49 is_stmt 1
 402              		.cfi_startproc
 403              		.cfi_personality 0x9b,DW.ref.__gxx_personality_v0
 404              		.cfi_lsda 0x1b,.LLSDA34
 405              	.LVL35:
  23:src/ConsoleKernel.cpp ****     while(!(TCB::running->isFinished())){
 406              		.loc 1 23 5
 407              		.loc 1 23 11
 408              		.loc 1 23 37 is_stmt 0
 409 0268 97070000 		la	a5,_ZN3TCB7runningE
 409      83B70700 
 410 0270 83B70700 		ld	a5,0(a5)
 411              	.LVL36:
 412              	.LBB92:
 413              	.LBB93:
 414              		.loc 2 24 30 is_stmt 1
 415              		.loc 2 24 43 is_stmt 0
 416 0274 83A78702 		lw	a5,40(a5)
 417              	.LVL37:
 418              	.LBE93:
 419              	.LBE92:
 420              		.loc 1 23 11
 421 0278 638C0724 		beqz	a5,.L34
  22:src/ConsoleKernel.cpp ****     while(!(TCB::running->isFinished())){
 422              		.loc 1 22 49
 423 027c 130101FE 		addi	sp,sp,-32
 424              		.cfi_def_cfa_offset 32
 425 0280 233C1100 		sd	ra,24(sp)
 426 0284 23388100 		sd	s0,16(sp)
 427 0288 23349100 		sd	s1,8(sp)
 428 028c 23302101 		sd	s2,0(sp)
 429              		.cfi_offset 1, -8
 430              		.cfi_offset 8, -16
 431              		.cfi_offset 9, -24
 432              		.cfi_offset 18, -32
 433 0290 13040102 		addi	s0,sp,32
 434              		.cfi_def_cfa 8, 0
 435 0294 6F008001 		j	.L30
 436              	.LVL38:
 437              	.L24:
GAS LISTING /tmp/ccrAem8Q.s 			page 12


 438              		.loc 1 23 5 is_stmt 1
 439              		.loc 1 23 11
 440              		.loc 1 23 37 is_stmt 0
 441 0298 97070000 		la	a5,_ZN3TCB7runningE
 441      83B70700 
 442 02a0 83B70700 		ld	a5,0(a5)
 443              	.LVL39:
 444              	.LBB95:
 445              	.LBB94:
 446              		.loc 2 24 30 is_stmt 1
 447              		.loc 2 24 43 is_stmt 0
 448 02a4 83A78702 		lw	a5,40(a5)
 449              	.LVL40:
 450              	.LBE94:
 451              	.LBE95:
 452              		.loc 1 23 11
 453 02a8 63880720 		beqz	a5,.L19
 454              	.L30:
 455              	.LBB96:
  24:src/ConsoleKernel.cpp ****         sem_wait(ConsoleKernel::get()->putSem);
 456              		.loc 1 24 9 is_stmt 1
 457              	.LBB97:
 458              	.LBB98:
  37:src/../h/ConsoleKernel.hpp ****         return instance;
 459              		.loc 3 37 9
  37:src/../h/ConsoleKernel.hpp ****         return instance;
 460              		.loc 3 37 12 is_stmt 0
 461 02ac 97070000 		ld	a5,.LANCHOR0
 461      83B70700 
  37:src/../h/ConsoleKernel.hpp ****         return instance;
 462              		.loc 3 37 9
 463 02b4 638E0700 		beqz	a5,.L35
 464              	.L21:
 465              		.loc 3 38 9 is_stmt 1
 466              	.LBE98:
 467              	.LBE97:
 468              		.loc 1 24 17 is_stmt 0
 469 02b8 97070000 		ld	a5,.LANCHOR0
 469      83B70700 
 470 02c0 03B58711 		ld	a0,280(a5)
 471              	.LEHB7:
 472 02c4 97000000 		call	_Z8sem_waitP4_sem@plt
 472      E7800000 
 473              	.LVL41:
 474 02cc 6F00C017 		j	.L22
 475              	.L35:
 476              	.LBB109:
 477              	.LBB108:
  37:src/../h/ConsoleKernel.hpp ****         return instance;
 478              		.loc 3 37 23 is_stmt 1
  37:src/../h/ConsoleKernel.hpp ****         return instance;
 479              		.loc 3 37 52 is_stmt 0
 480 02d0 13050012 		li	a0,288
 481 02d4 97000000 		call	_Znwm@plt
 481      E7800000 
 482              	.LVL42:
 483              	.LEHE7:
GAS LISTING /tmp/ccrAem8Q.s 			page 13


 484 02dc 93040500 		mv	s1,a0
 485              	.LVL43:
 486              	.LBB99:
 487              	.LBB100:
 488              	.LBB101:
 489              	.LBB102:
 490              	.LBB103:
 491              	.LBB104:
  30:src/../h/../h/BufferKernel.hpp ****         sem_open(&mutexSem, 1);
 492              		.loc 4 30 45
 493 02e0 23200500 		sw	zero,0(a0)
 494 02e4 23220500 		sw	zero,4(a0)
 495 02e8 23240500 		sw	zero,8(a0)
  31:src/../h/../h/BufferKernel.hpp ****         sem_open(&spacePutAv, maxSize);
 496              		.loc 4 31 9 is_stmt 1
  31:src/../h/../h/BufferKernel.hpp ****         sem_open(&spacePutAv, maxSize);
 497              		.loc 4 31 17 is_stmt 0
 498 02ec 93051000 		li	a1,1
 499 02f0 13050507 		addi	a0,a0,112
 500              	.LEHB8:
 501 02f4 97000000 		call	_Z8sem_openPP4_semj@plt
 501      E7800000 
 502              	.LVL44:
  32:src/../h/../h/BufferKernel.hpp ****         sem_open(&charGetAv, 0);
 503              		.loc 4 32 9 is_stmt 1
  32:src/../h/../h/BufferKernel.hpp ****         sem_open(&charGetAv, 0);
 504              		.loc 4 32 17 is_stmt 0
 505 02fc 93054006 		li	a1,100
 506 0300 13858407 		addi	a0,s1,120
 507 0304 97000000 		call	_Z8sem_openPP4_semj@plt
 507      E7800000 
 508              	.LVL45:
 509              		.loc 4 33 9 is_stmt 1
 510              		.loc 4 33 17 is_stmt 0
 511 030c 93050000 		li	a1,0
 512 0310 13850408 		addi	a0,s1,128
 513 0314 97000000 		call	_Z8sem_openPP4_semj@plt
 513      E7800000 
 514              	.LVL46:
 515              	.LBE104:
 516              	.LBE103:
 517              	.LBE102:
 518              	.LBB105:
 519              	.LBB106:
 520              	.LBB107:
  30:src/../h/../h/BufferKernel.hpp ****         sem_open(&mutexSem, 1);
 521              		.loc 4 30 45
 522 031c 23A40408 		sw	zero,136(s1)
 523 0320 23A60408 		sw	zero,140(s1)
 524 0324 23A80408 		sw	zero,144(s1)
  31:src/../h/../h/BufferKernel.hpp ****         sem_open(&spacePutAv, maxSize);
 525              		.loc 4 31 9 is_stmt 1
  31:src/../h/../h/BufferKernel.hpp ****         sem_open(&spacePutAv, maxSize);
 526              		.loc 4 31 17 is_stmt 0
 527 0328 93051000 		li	a1,1
 528 032c 1385840F 		addi	a0,s1,248
 529 0330 97000000 		call	_Z8sem_openPP4_semj@plt
GAS LISTING /tmp/ccrAem8Q.s 			page 14


 529      E7800000 
 530              	.LVL47:
  32:src/../h/../h/BufferKernel.hpp ****         sem_open(&charGetAv, 0);
 531              		.loc 4 32 9 is_stmt 1
  32:src/../h/../h/BufferKernel.hpp ****         sem_open(&charGetAv, 0);
 532              		.loc 4 32 17 is_stmt 0
 533 0338 93054006 		li	a1,100
 534 033c 13850410 		addi	a0,s1,256
 535 0340 97000000 		call	_Z8sem_openPP4_semj@plt
 535      E7800000 
 536              	.LVL48:
 537              		.loc 4 33 9 is_stmt 1
 538              		.loc 4 33 17 is_stmt 0
 539 0348 93050000 		li	a1,0
 540 034c 13858410 		addi	a0,s1,264
 541 0350 97000000 		call	_Z8sem_openPP4_semj@plt
 541      E7800000 
 542              	.LVL49:
 543              	.LBE107:
 544              	.LBE106:
 545              	.LBE105:
  16:src/../h/ConsoleKernel.hpp ****         sem_open(&putSem,0);
 546              		.loc 3 16 9 is_stmt 1
  16:src/../h/ConsoleKernel.hpp ****         sem_open(&putSem,0);
 547              		.loc 3 16 17 is_stmt 0
 548 0358 93050000 		li	a1,0
 549 035c 13850411 		addi	a0,s1,272
 550 0360 97000000 		call	_Z8sem_openPP4_semj@plt
 550      E7800000 
 551              	.LVL50:
  17:src/../h/ConsoleKernel.hpp ****     }
 552              		.loc 3 17 9 is_stmt 1
  17:src/../h/ConsoleKernel.hpp ****     }
 553              		.loc 3 17 17 is_stmt 0
 554 0368 93050000 		li	a1,0
 555 036c 13858411 		addi	a0,s1,280
 556 0370 97000000 		call	_Z8sem_openPP4_semj@plt
 556      E7800000 
 557              	.LVL51:
 558              	.LEHE8:
 559              	.LBE101:
 560              	.LBE100:
 561              	.LBE99:
  37:src/../h/ConsoleKernel.hpp ****         return instance;
 562              		.loc 3 37 32
 563 0378 97070000 		sd	s1,.LANCHOR0,a5
 563      23B09700 
 564 0380 6FF09FF3 		j	.L21
 565              	.LVL52:
 566              	.L27:
 567 0384 13090500 		mv	s2,a0
  37:src/../h/ConsoleKernel.hpp ****         return instance;
 568              		.loc 3 37 52
 569 0388 13850400 		mv	a0,s1
 570 038c 97000000 		call	_ZdlPv@plt
 570      E7800000 
 571              	.LVL53:
GAS LISTING /tmp/ccrAem8Q.s 			page 15


 572 0394 13050900 		mv	a0,s2
 573              	.LEHB9:
 574 0398 97000000 		call	_Unwind_Resume@plt
 574      E7800000 
 575              	.LVL54:
 576              	.LEHE9:
 577              	.L36:
 578              	.LBE108:
 579              	.LBE109:
 580              	.LBB110:
 581              	.LBB111:
 582              	.LBB112:
 583              	.LBB113:
 584              	.LBB114:
 585              	.LBB115:
 586              	.LBB116:
 587              	.LBB117:
  32:src/../h/../h/BufferKernel.hpp ****         sem_open(&charGetAv, 0);
 588              		.loc 4 32 9 is_stmt 1
  32:src/../h/../h/BufferKernel.hpp ****         sem_open(&charGetAv, 0);
 589              		.loc 4 32 17 is_stmt 0
 590 03a0 93054006 		li	a1,100
 591 03a4 13858407 		addi	a0,s1,120
 592              	.LEHB10:
 593 03a8 97000000 		call	_Z8sem_openPP4_semj@plt
 593      E7800000 
 594              	.LVL55:
 595              		.loc 4 33 9 is_stmt 1
 596              		.loc 4 33 17 is_stmt 0
 597 03b0 93050000 		li	a1,0
 598 03b4 13850408 		addi	a0,s1,128
 599 03b8 97000000 		call	_Z8sem_openPP4_semj@plt
 599      E7800000 
 600              	.LVL56:
 601              	.LBE117:
 602              	.LBE116:
 603              	.LBE115:
 604              	.LBB120:
 605              	.LBB121:
 606              	.LBB122:
  30:src/../h/../h/BufferKernel.hpp ****         sem_open(&mutexSem, 1);
 607              		.loc 4 30 45
 608 03c0 23A40408 		sw	zero,136(s1)
 609 03c4 23A60408 		sw	zero,140(s1)
 610 03c8 23A80408 		sw	zero,144(s1)
  31:src/../h/../h/BufferKernel.hpp ****         sem_open(&spacePutAv, maxSize);
 611              		.loc 4 31 9 is_stmt 1
  31:src/../h/../h/BufferKernel.hpp ****         sem_open(&spacePutAv, maxSize);
 612              		.loc 4 31 17 is_stmt 0
 613 03cc 93051000 		li	a1,1
 614 03d0 1385840F 		addi	a0,s1,248
 615 03d4 97000000 		call	_Z8sem_openPP4_semj@plt
 615      E7800000 
 616              	.LVL57:
  32:src/../h/../h/BufferKernel.hpp ****         sem_open(&charGetAv, 0);
 617              		.loc 4 32 9 is_stmt 1
  32:src/../h/../h/BufferKernel.hpp ****         sem_open(&charGetAv, 0);
GAS LISTING /tmp/ccrAem8Q.s 			page 16


 618              		.loc 4 32 17 is_stmt 0
 619 03dc 93054006 		li	a1,100
 620 03e0 13850410 		addi	a0,s1,256
 621 03e4 97000000 		call	_Z8sem_openPP4_semj@plt
 621      E7800000 
 622              	.LVL58:
 623              		.loc 4 33 9 is_stmt 1
 624              		.loc 4 33 17 is_stmt 0
 625 03ec 93050000 		li	a1,0
 626 03f0 13858410 		addi	a0,s1,264
 627 03f4 97000000 		call	_Z8sem_openPP4_semj@plt
 627      E7800000 
 628              	.LVL59:
 629              	.LBE122:
 630              	.LBE121:
 631              	.LBE120:
  16:src/../h/ConsoleKernel.hpp ****         sem_open(&putSem,0);
 632              		.loc 3 16 9 is_stmt 1
  16:src/../h/ConsoleKernel.hpp ****         sem_open(&putSem,0);
 633              		.loc 3 16 17 is_stmt 0
 634 03fc 93050000 		li	a1,0
 635 0400 13850411 		addi	a0,s1,272
 636 0404 97000000 		call	_Z8sem_openPP4_semj@plt
 636      E7800000 
 637              	.LVL60:
  17:src/../h/ConsoleKernel.hpp ****     }
 638              		.loc 3 17 9 is_stmt 1
  17:src/../h/ConsoleKernel.hpp ****     }
 639              		.loc 3 17 17 is_stmt 0
 640 040c 93050000 		li	a1,0
 641 0410 13858411 		addi	a0,s1,280
 642 0414 97000000 		call	_Z8sem_openPP4_semj@plt
 642      E7800000 
 643              	.LVL61:
 644              	.LEHE10:
 645              	.LBE114:
 646              	.LBE113:
 647              	.LBE112:
  37:src/../h/ConsoleKernel.hpp ****         return instance;
 648              		.loc 3 37 32
 649 041c 97070000 		sd	s1,.LANCHOR0,a5
 649      23B09700 
 650              	.L25:
 651              		.loc 3 38 9 is_stmt 1
 652              	.LBE111:
 653              	.LBE110:
  25:src/ConsoleKernel.cpp ****         char c;
  26:src/ConsoleKernel.cpp ****         while ( *((char*)CONSOLE_STATUS) & CONSOLE_TX_STATUS_BIT ) {
  27:src/ConsoleKernel.cpp ****             c = ConsoleKernel::get()->output.get();
 654              		.loc 1 27 49 is_stmt 0
 655 0424 17050000 		ld	a0,.LANCHOR0
 655      03350500 
 656 042c 13058508 		addi	a0,a0,136
 657              	.LEHB11:
 658 0430 97000000 		call	_ZN12BufferKernel3getEv@plt
 658      E7800000 
 659              	.LVL62:
GAS LISTING /tmp/ccrAem8Q.s 			page 17


  28:src/ConsoleKernel.cpp **** //            if (c != '\x1b') {
  29:src/ConsoleKernel.cpp **** //                if (c == '\r') c = '\n';
  30:src/ConsoleKernel.cpp ****                 *((char *) CONSOLE_TX_DATA) = c;
 660              		.loc 1 30 17 is_stmt 1
 661 0438 97070000 		la	a5,CONSOLE_TX_DATA
 661      83B70700 
 662 0440 83B70700 		ld	a5,0(a5)
 663              		.loc 1 30 45 is_stmt 0
 664 0444 2380A700 		sb	a0,0(a5)
 665              	.LVL63:
 666              	.L22:
  25:src/ConsoleKernel.cpp ****         char c;
 667              		.loc 1 25 9 is_stmt 1
  26:src/ConsoleKernel.cpp ****             c = ConsoleKernel::get()->output.get();
 668              		.loc 1 26 9
  26:src/ConsoleKernel.cpp ****             c = ConsoleKernel::get()->output.get();
 669              		.loc 1 26 44
  26:src/ConsoleKernel.cpp ****             c = ConsoleKernel::get()->output.get();
 670              		.loc 1 26 17 is_stmt 0
 671 0448 97070000 		la	a5,CONSOLE_STATUS
 671      83B70700 
 672 0450 83B70700 		ld	a5,0(a5)
 673 0454 83C70700 		lbu	a5,0(a5)
  26:src/ConsoleKernel.cpp ****             c = ConsoleKernel::get()->output.get();
 674              		.loc 1 26 44
 675 0458 93F70702 		andi	a5,a5,32
 676 045c E38E07E2 		beqz	a5,.L24
  27:src/ConsoleKernel.cpp **** //            if (c != '\x1b') {
 677              		.loc 1 27 13 is_stmt 1
 678              	.LBB128:
 679              	.LBB127:
  37:src/../h/ConsoleKernel.hpp ****         return instance;
 680              		.loc 3 37 9
  37:src/../h/ConsoleKernel.hpp ****         return instance;
 681              		.loc 3 37 12 is_stmt 0
 682 0460 97070000 		ld	a5,.LANCHOR0
 682      83B70700 
  37:src/../h/ConsoleKernel.hpp ****         return instance;
 683              		.loc 3 37 9
 684 0468 E39E07FA 		bnez	a5,.L25
  37:src/../h/ConsoleKernel.hpp ****         return instance;
 685              		.loc 3 37 23 is_stmt 1
  37:src/../h/ConsoleKernel.hpp ****         return instance;
 686              		.loc 3 37 52 is_stmt 0
 687 046c 13050012 		li	a0,288
 688 0470 97000000 		call	_Znwm@plt
 688      E7800000 
 689              	.LVL64:
 690              	.LEHE11:
 691 0478 93040500 		mv	s1,a0
 692              	.LVL65:
 693              	.LBB126:
 694              	.LBB125:
 695              	.LBB124:
 696              	.LBB123:
 697              	.LBB119:
 698              	.LBB118:
GAS LISTING /tmp/ccrAem8Q.s 			page 18


  30:src/../h/../h/BufferKernel.hpp ****         sem_open(&mutexSem, 1);
 699              		.loc 4 30 45
 700 047c 23200500 		sw	zero,0(a0)
 701 0480 23220500 		sw	zero,4(a0)
 702 0484 23240500 		sw	zero,8(a0)
  31:src/../h/../h/BufferKernel.hpp ****         sem_open(&spacePutAv, maxSize);
 703              		.loc 4 31 9 is_stmt 1
  31:src/../h/../h/BufferKernel.hpp ****         sem_open(&spacePutAv, maxSize);
 704              		.loc 4 31 17 is_stmt 0
 705 0488 93051000 		li	a1,1
 706 048c 13050507 		addi	a0,a0,112
 707              	.LEHB12:
 708 0490 97000000 		call	_Z8sem_openPP4_semj@plt
 708      E7800000 
 709              	.LVL66:
 710              	.LEHE12:
 711 0498 6FF09FF0 		j	.L36
 712              	.LVL67:
 713              	.L28:
 714 049c 13090500 		mv	s2,a0
 715              	.LBE118:
 716              	.LBE119:
 717              	.LBE123:
 718              	.LBE124:
 719              	.LBE125:
 720              	.LBE126:
  37:src/../h/ConsoleKernel.hpp ****         return instance;
 721              		.loc 3 37 52
 722 04a0 13850400 		mv	a0,s1
 723 04a4 97000000 		call	_ZdlPv@plt
 723      E7800000 
 724              	.LVL68:
 725 04ac 13050900 		mv	a0,s2
 726              	.LEHB13:
 727 04b0 97000000 		call	_Unwind_Resume@plt
 727      E7800000 
 728              	.LVL69:
 729              	.LEHE13:
 730              	.L19:
 731              	.LBE127:
 732              	.LBE128:
 733              	.LBE96:
  31:src/ConsoleKernel.cpp **** //            }
  32:src/ConsoleKernel.cpp ****         }
  33:src/ConsoleKernel.cpp ****     }
  34:src/ConsoleKernel.cpp **** }
 734              		.loc 1 34 1
 735 04b8 83308101 		ld	ra,24(sp)
 736              		.cfi_restore 1
 737 04bc 03340101 		ld	s0,16(sp)
 738              		.cfi_restore 8
 739              		.cfi_def_cfa 2, 32
 740 04c0 83348100 		ld	s1,8(sp)
 741              		.cfi_restore 9
 742 04c4 03390100 		ld	s2,0(sp)
 743              		.cfi_restore 18
 744 04c8 13010102 		addi	sp,sp,32
GAS LISTING /tmp/ccrAem8Q.s 			page 19


 745              		.cfi_def_cfa_offset 0
 746 04cc 67800000 		jr	ra
 747              	.LVL70:
 748              	.L34:
 749 04d0 67800000 		ret
 750              		.cfi_endproc
 751              	.LFE34:
 752              		.section	.gcc_except_table
 753              	.LLSDA34:
 754 005f FF       		.byte	0xff
 755 0060 FF       		.byte	0xff
 756 0061 03       		.byte	0x3
 757 0062 5B       		.byte	0x5b
 758 0063 00000000 		.4byte	.LEHB7-.LFB34
 759 0067 00000000 		.4byte	.LEHE7-.LEHB7
 760 006b 00000000 		.4byte	0
 761 006f 00       		.byte	0
 762 0070 00000000 		.4byte	.LEHB8-.LFB34
 763 0074 00000000 		.4byte	.LEHE8-.LEHB8
 764 0078 00000000 		.4byte	.L27-.LFB34
 765 007c 00       		.byte	0
 766 007d 00000000 		.4byte	.LEHB9-.LFB34
 767 0081 00000000 		.4byte	.LEHE9-.LEHB9
 768 0085 00000000 		.4byte	0
 769 0089 00       		.byte	0
 770 008a 00000000 		.4byte	.LEHB10-.LFB34
 771 008e 00000000 		.4byte	.LEHE10-.LEHB10
 772 0092 00000000 		.4byte	.L28-.LFB34
 773 0096 00       		.byte	0
 774 0097 00000000 		.4byte	.LEHB11-.LFB34
 775 009b 00000000 		.4byte	.LEHE11-.LEHB11
 776 009f 00000000 		.4byte	0
 777 00a3 00       		.byte	0
 778 00a4 00000000 		.4byte	.LEHB12-.LFB34
 779 00a8 00000000 		.4byte	.LEHE12-.LEHB12
 780 00ac 00000000 		.4byte	.L28-.LFB34
 781 00b0 00       		.byte	0
 782 00b1 00000000 		.4byte	.LEHB13-.LFB34
 783 00b5 00000000 		.4byte	.LEHE13-.LEHB13
 784 00b9 00000000 		.4byte	0
 785 00bd 00       		.byte	0
 786              		.text
 788              		.align	2
 789              		.globl	_ZN13ConsoleKernel4getcEv
 791              	_ZN13ConsoleKernel4getcEv:
 792              	.LFB35:
  35:src/ConsoleKernel.cpp **** 
  36:src/ConsoleKernel.cpp **** // Get a character from the input buffer
  37:src/ConsoleKernel.cpp **** char ConsoleKernel::getc(){
 793              		.loc 1 37 27 is_stmt 1
 794              		.cfi_startproc
 795              		.cfi_personality 0x9b,DW.ref.__gxx_personality_v0
 796              		.cfi_lsda 0x1b,.LLSDA35
 797 04d4 130101FE 		addi	sp,sp,-32
 798              		.cfi_def_cfa_offset 32
 799 04d8 233C1100 		sd	ra,24(sp)
 800 04dc 23388100 		sd	s0,16(sp)
GAS LISTING /tmp/ccrAem8Q.s 			page 20


 801 04e0 23349100 		sd	s1,8(sp)
 802 04e4 23302101 		sd	s2,0(sp)
 803              		.cfi_offset 1, -8
 804              		.cfi_offset 8, -16
 805              		.cfi_offset 9, -24
 806              		.cfi_offset 18, -32
 807 04e8 13040102 		addi	s0,sp,32
 808              		.cfi_def_cfa 8, 0
  38:src/ConsoleKernel.cpp ****     return ConsoleKernel::get()->input.get();
 809              		.loc 1 38 5
 810              	.LBB140:
 811              	.LBB141:
  37:src/../h/ConsoleKernel.hpp ****         return instance;
 812              		.loc 3 37 9
  37:src/../h/ConsoleKernel.hpp ****         return instance;
 813              		.loc 3 37 12 is_stmt 0
 814 04ec 97070000 		ld	a5,.LANCHOR0
 814      83B70700 
  37:src/../h/ConsoleKernel.hpp ****         return instance;
 815              		.loc 3 37 9
 816 04f4 63860702 		beqz	a5,.L43
 817              	.L38:
 818              		.loc 3 38 9 is_stmt 1
 819              	.LBE141:
 820              	.LBE140:
 821              		.loc 1 38 43 is_stmt 0
 822 04f8 17050000 		ld	a0,.LANCHOR0
 822      03350500 
 823              	.LEHB14:
 824 0500 97000000 		call	_ZN12BufferKernel3getEv@plt
 824      E7800000 
 825              	.LVL71:
  39:src/ConsoleKernel.cpp **** }
 826              		.loc 1 39 1
 827 0508 83308101 		ld	ra,24(sp)
 828              		.cfi_remember_state
 829              		.cfi_restore 1
 830 050c 03340101 		ld	s0,16(sp)
 831              		.cfi_restore 8
 832              		.cfi_def_cfa 2, 32
 833 0510 83348100 		ld	s1,8(sp)
 834              		.cfi_restore 9
 835 0514 03390100 		ld	s2,0(sp)
 836              		.cfi_restore 18
 837 0518 13010102 		addi	sp,sp,32
 838              		.cfi_def_cfa_offset 0
 839 051c 67800000 		jr	ra
 840              	.L43:
 841              		.cfi_restore_state
 842              	.LBB152:
 843              	.LBB151:
  37:src/../h/ConsoleKernel.hpp ****         return instance;
 844              		.loc 3 37 23 is_stmt 1
  37:src/../h/ConsoleKernel.hpp ****         return instance;
 845              		.loc 3 37 52 is_stmt 0
 846 0520 13050012 		li	a0,288
 847 0524 97000000 		call	_Znwm@plt
GAS LISTING /tmp/ccrAem8Q.s 			page 21


 847      E7800000 
 848              	.LVL72:
 849              	.LEHE14:
 850 052c 93040500 		mv	s1,a0
 851              	.LVL73:
 852              	.LBB142:
 853              	.LBB143:
 854              	.LBB144:
 855              	.LBB145:
 856              	.LBB146:
 857              	.LBB147:
  30:src/../h/../h/BufferKernel.hpp ****         sem_open(&mutexSem, 1);
 858              		.loc 4 30 45
 859 0530 23200500 		sw	zero,0(a0)
 860 0534 23220500 		sw	zero,4(a0)
 861 0538 23240500 		sw	zero,8(a0)
  31:src/../h/../h/BufferKernel.hpp ****         sem_open(&spacePutAv, maxSize);
 862              		.loc 4 31 9 is_stmt 1
  31:src/../h/../h/BufferKernel.hpp ****         sem_open(&spacePutAv, maxSize);
 863              		.loc 4 31 17 is_stmt 0
 864 053c 93051000 		li	a1,1
 865 0540 13050507 		addi	a0,a0,112
 866              	.LEHB15:
 867 0544 97000000 		call	_Z8sem_openPP4_semj@plt
 867      E7800000 
 868              	.LVL74:
  32:src/../h/../h/BufferKernel.hpp ****         sem_open(&charGetAv, 0);
 869              		.loc 4 32 9 is_stmt 1
  32:src/../h/../h/BufferKernel.hpp ****         sem_open(&charGetAv, 0);
 870              		.loc 4 32 17 is_stmt 0
 871 054c 93054006 		li	a1,100
 872 0550 13858407 		addi	a0,s1,120
 873 0554 97000000 		call	_Z8sem_openPP4_semj@plt
 873      E7800000 
 874              	.LVL75:
 875              		.loc 4 33 9 is_stmt 1
 876              		.loc 4 33 17 is_stmt 0
 877 055c 93050000 		li	a1,0
 878 0560 13850408 		addi	a0,s1,128
 879 0564 97000000 		call	_Z8sem_openPP4_semj@plt
 879      E7800000 
 880              	.LVL76:
 881              	.LBE147:
 882              	.LBE146:
 883              	.LBE145:
 884              	.LBB148:
 885              	.LBB149:
 886              	.LBB150:
  30:src/../h/../h/BufferKernel.hpp ****         sem_open(&mutexSem, 1);
 887              		.loc 4 30 45
 888 056c 23A40408 		sw	zero,136(s1)
 889 0570 23A60408 		sw	zero,140(s1)
 890 0574 23A80408 		sw	zero,144(s1)
  31:src/../h/../h/BufferKernel.hpp ****         sem_open(&spacePutAv, maxSize);
 891              		.loc 4 31 9 is_stmt 1
  31:src/../h/../h/BufferKernel.hpp ****         sem_open(&spacePutAv, maxSize);
 892              		.loc 4 31 17 is_stmt 0
GAS LISTING /tmp/ccrAem8Q.s 			page 22


 893 0578 93051000 		li	a1,1
 894 057c 1385840F 		addi	a0,s1,248
 895 0580 97000000 		call	_Z8sem_openPP4_semj@plt
 895      E7800000 
 896              	.LVL77:
  32:src/../h/../h/BufferKernel.hpp ****         sem_open(&charGetAv, 0);
 897              		.loc 4 32 9 is_stmt 1
  32:src/../h/../h/BufferKernel.hpp ****         sem_open(&charGetAv, 0);
 898              		.loc 4 32 17 is_stmt 0
 899 0588 93054006 		li	a1,100
 900 058c 13850410 		addi	a0,s1,256
 901 0590 97000000 		call	_Z8sem_openPP4_semj@plt
 901      E7800000 
 902              	.LVL78:
 903              		.loc 4 33 9 is_stmt 1
 904              		.loc 4 33 17 is_stmt 0
 905 0598 93050000 		li	a1,0
 906 059c 13858410 		addi	a0,s1,264
 907 05a0 97000000 		call	_Z8sem_openPP4_semj@plt
 907      E7800000 
 908              	.LVL79:
 909              	.LBE150:
 910              	.LBE149:
 911              	.LBE148:
  16:src/../h/ConsoleKernel.hpp ****         sem_open(&putSem,0);
 912              		.loc 3 16 9 is_stmt 1
  16:src/../h/ConsoleKernel.hpp ****         sem_open(&putSem,0);
 913              		.loc 3 16 17 is_stmt 0
 914 05a8 93050000 		li	a1,0
 915 05ac 13850411 		addi	a0,s1,272
 916 05b0 97000000 		call	_Z8sem_openPP4_semj@plt
 916      E7800000 
 917              	.LVL80:
  17:src/../h/ConsoleKernel.hpp ****     }
 918              		.loc 3 17 9 is_stmt 1
  17:src/../h/ConsoleKernel.hpp ****     }
 919              		.loc 3 17 17 is_stmt 0
 920 05b8 93050000 		li	a1,0
 921 05bc 13858411 		addi	a0,s1,280
 922 05c0 97000000 		call	_Z8sem_openPP4_semj@plt
 922      E7800000 
 923              	.LVL81:
 924              	.LEHE15:
 925              	.LBE144:
 926              	.LBE143:
 927              	.LBE142:
  37:src/../h/ConsoleKernel.hpp ****         return instance;
 928              		.loc 3 37 32
 929 05c8 97070000 		sd	s1,.LANCHOR0,a5
 929      23B09700 
 930 05d0 6FF09FF2 		j	.L38
 931              	.LVL82:
 932              	.L40:
 933 05d4 13090500 		mv	s2,a0
  37:src/../h/ConsoleKernel.hpp ****         return instance;
 934              		.loc 3 37 52
 935 05d8 13850400 		mv	a0,s1
GAS LISTING /tmp/ccrAem8Q.s 			page 23


 936 05dc 97000000 		call	_ZdlPv@plt
 936      E7800000 
 937              	.LVL83:
 938 05e4 13050900 		mv	a0,s2
 939              	.LEHB16:
 940 05e8 97000000 		call	_Unwind_Resume@plt
 940      E7800000 
 941              	.LVL84:
 942              	.LEHE16:
 943              	.LBE151:
 944              	.LBE152:
 945              		.cfi_endproc
 946              	.LFE35:
 947              		.section	.gcc_except_table
 948              	.LLSDA35:
 949 00be FF       		.byte	0xff
 950 00bf FF       		.byte	0xff
 951 00c0 03       		.byte	0x3
 952 00c1 27       		.byte	0x27
 953 00c2 00000000 		.4byte	.LEHB14-.LFB35
 954 00c6 00000000 		.4byte	.LEHE14-.LEHB14
 955 00ca 00000000 		.4byte	0
 956 00ce 00       		.byte	0
 957 00cf 00000000 		.4byte	.LEHB15-.LFB35
 958 00d3 00000000 		.4byte	.LEHE15-.LEHB15
 959 00d7 00000000 		.4byte	.L40-.LFB35
 960 00db 00       		.byte	0
 961 00dc 00000000 		.4byte	.LEHB16-.LFB35
 962 00e0 00000000 		.4byte	.LEHE16-.LEHB16
 963 00e4 00000000 		.4byte	0
 964 00e8 00       		.byte	0
 965              		.text
 967              		.align	2
 968              		.globl	_ZN13ConsoleKernel4putcEc
 970              	_ZN13ConsoleKernel4putcEc:
 971              	.LFB36:
  40:src/ConsoleKernel.cpp **** 
  41:src/ConsoleKernel.cpp **** // Put a character in the output buffer
  42:src/ConsoleKernel.cpp **** void ConsoleKernel::putc(char putchar){
 972              		.loc 1 42 39 is_stmt 1
 973              		.cfi_startproc
 974              		.cfi_personality 0x9b,DW.ref.__gxx_personality_v0
 975              		.cfi_lsda 0x1b,.LLSDA36
 976              	.LVL85:
 977 05f0 130101FD 		addi	sp,sp,-48
 978              		.cfi_def_cfa_offset 48
 979 05f4 23341102 		sd	ra,40(sp)
 980 05f8 23308102 		sd	s0,32(sp)
 981 05fc 233C9100 		sd	s1,24(sp)
 982 0600 23382101 		sd	s2,16(sp)
 983 0604 23343101 		sd	s3,8(sp)
 984              		.cfi_offset 1, -8
 985              		.cfi_offset 8, -16
 986              		.cfi_offset 9, -24
 987              		.cfi_offset 18, -32
 988              		.cfi_offset 19, -40
 989 0608 13040103 		addi	s0,sp,48
GAS LISTING /tmp/ccrAem8Q.s 			page 24


 990              		.cfi_def_cfa 8, 0
 991 060c 93040500 		mv	s1,a0
  43:src/ConsoleKernel.cpp ****     ConsoleKernel::get()->output.put(putchar);
 992              		.loc 1 43 5
 993              	.LBB164:
 994              	.LBB165:
  37:src/../h/ConsoleKernel.hpp ****         return instance;
 995              		.loc 3 37 9
  37:src/../h/ConsoleKernel.hpp ****         return instance;
 996              		.loc 3 37 12 is_stmt 0
 997 0610 97070000 		ld	a5,.LANCHOR0
 997      83B70700 
  37:src/../h/ConsoleKernel.hpp ****         return instance;
 998              		.loc 3 37 9
 999 0618 638C0702 		beqz	a5,.L50
 1000              	.LVL86:
 1001              	.L45:
 1002              		.loc 3 38 9 is_stmt 1
 1003              	.LBE165:
 1004              	.LBE164:
 1005              		.loc 1 43 37 is_stmt 0
 1006 061c 93850400 		mv	a1,s1
 1007 0620 17050000 		ld	a0,.LANCHOR0
 1007      03350500 
 1008 0628 13058508 		addi	a0,a0,136
 1009              	.LEHB17:
 1010 062c 97000000 		call	_ZN12BufferKernel3putEc@plt
 1010      E7800000 
 1011              	.LVL87:
  44:src/ConsoleKernel.cpp **** }...
 1012              		.loc 1 44 1
 1013 0634 83308102 		ld	ra,40(sp)
 1014              		.cfi_remember_state
 1015              		.cfi_restore 1
 1016 0638 03340102 		ld	s0,32(sp)
 1017              		.cfi_restore 8
 1018              		.cfi_def_cfa 2, 48
 1019 063c 83348101 		ld	s1,24(sp)
 1020              		.cfi_restore 9
 1021 0640 03390101 		ld	s2,16(sp)
 1022              		.cfi_restore 18
 1023 0644 83398100 		ld	s3,8(sp)
 1024              		.cfi_restore 19
 1025 0648 13010103 		addi	sp,sp,48
 1026              		.cfi_def_cfa_offset 0
 1027 064c 67800000 		jr	ra
 1028              	.LVL88:
 1029              	.L50:
 1030              		.cfi_restore_state
 1031              	.LBB176:
 1032              	.LBB175:
  37:src/../h/ConsoleKernel.hpp ****         return instance;
 1033              		.loc 3 37 23 is_stmt 1
  37:src/../h/ConsoleKernel.hpp ****         return instance;
 1034              		.loc 3 37 52 is_stmt 0
 1035 0650 13050012 		li	a0,288
 1036              	.LVL89:
GAS LISTING /tmp/ccrAem8Q.s 			page 25


 1037 0654 97000000 		call	_Znwm@plt
 1037      E7800000 
 1038              	.LVL90:
 1039              	.LEHE17:
 1040 065c 13090500 		mv	s2,a0
 1041              	.LVL91:
 1042              	.LBB166:
 1043              	.LBB167:
 1044              	.LBB168:
 1045              	.LBB169:
 1046              	.LBB170:
 1047              	.LBB171:
  30:src/../h/../h/BufferKernel.hpp ****         sem_open(&mutexSem, 1);
 1048              		.loc 4 30 45
 1049 0660 23200500 		sw	zero,0(a0)
 1050 0664 23220500 		sw	zero,4(a0)
 1051 0668 23240500 		sw	zero,8(a0)
  31:src/../h/../h/BufferKernel.hpp ****         sem_open(&spacePutAv, maxSize);
 1052              		.loc 4 31 9 is_stmt 1
  31:src/../h/../h/BufferKernel.hpp ****         sem_open(&spacePutAv, maxSize);
 1053              		.loc 4 31 17 is_stmt 0
 1054 066c 93051000 		li	a1,1
 1055 0670 13050507 		addi	a0,a0,112
 1056              	.LVL92:
 1057              	.LEHB18:
 1058 0674 97000000 		call	_Z8sem_openPP4_semj@plt
 1058      E7800000 
 1059              	.LVL93:
  32:src/../h/../h/BufferKernel.hpp ****         sem_open(&charGetAv, 0);
 1060              		.loc 4 32 9 is_stmt 1
  32:src/../h/../h/BufferKernel.hpp ****         sem_open(&charGetAv, 0);
 1061              		.loc 4 32 17 is_stmt 0
 1062 067c 93054006 		li	a1,100
 1063 0680 13058907 		addi	a0,s2,120
 1064 0684 97000000 		call	_Z8sem_openPP4_semj@plt
 1064      E7800000 
 1065              	.LVL94:
 1066              		.loc 4 33 9 is_stmt 1
 1067              		.loc 4 33 17 is_stmt 0
 1068 068c 93050000 		li	a1,0
 1069 0690 13050908 		addi	a0,s2,128
 1070 0694 97000000 		call	_Z8sem_openPP4_semj@plt
 1070      E7800000 
 1071              	.LVL95:
 1072              	.LBE171:
 1073              	.LBE170:
 1074              	.LBE169:
 1075              	.LBB172:
 1076              	.LBB173:
 1077              	.LBB174:
  30:src/../h/../h/BufferKernel.hpp ****         sem_open(&mutexSem, 1);
 1078              		.loc 4 30 45
 1079 069c 23240908 		sw	zero,136(s2)
 1080 06a0 23260908 		sw	zero,140(s2)
 1081 06a4 23280908 		sw	zero,144(s2)
  31:src/../h/../h/BufferKernel.hpp ****         sem_open(&spacePutAv, maxSize);
 1082              		.loc 4 31 9 is_stmt 1
GAS LISTING /tmp/ccrAem8Q.s 			page 26


  31:src/../h/../h/BufferKernel.hpp ****         sem_open(&spacePutAv, maxSize);
 1083              		.loc 4 31 17 is_stmt 0
 1084 06a8 93051000 		li	a1,1
 1085 06ac 1305890F 		addi	a0,s2,248
 1086 06b0 97000000 		call	_Z8sem_openPP4_semj@plt
 1086      E7800000 
 1087              	.LVL96:
  32:src/../h/../h/BufferKernel.hpp ****         sem_open(&charGetAv, 0);
 1088              		.loc 4 32 9 is_stmt 1
  32:src/../h/../h/BufferKernel.hpp ****         sem_open(&charGetAv, 0);
 1089              		.loc 4 32 17 is_stmt 0
 1090 06b8 93054006 		li	a1,100
 1091 06bc 13050910 		addi	a0,s2,256
 1092 06c0 97000000 		call	_Z8sem_openPP4_semj@plt
 1092      E7800000 
 1093              	.LVL97:
 1094              		.loc 4 33 9 is_stmt 1
 1095              		.loc 4 33 17 is_stmt 0
 1096 06c8 93050000 		li	a1,0
 1097 06cc 13058910 		addi	a0,s2,264
 1098 06d0 97000000 		call	_Z8sem_openPP4_semj@plt
 1098      E7800000 
 1099              	.LVL98:
 1100              	.LBE174:
 1101              	.LBE173:
 1102              	.LBE172:
  16:src/../h/ConsoleKernel.hpp ****         sem_open(&putSem,0);
 1103              		.loc 3 16 9 is_stmt 1
  16:src/../h/ConsoleKernel.hpp ****         sem_open(&putSem,0);
 1104              		.loc 3 16 17 is_stmt 0
 1105 06d8 93050000 		li	a1,0
 1106 06dc 13050911 		addi	a0,s2,272
 1107 06e0 97000000 		call	_Z8sem_openPP4_semj@plt
 1107      E7800000 
 1108              	.LVL99:
  17:src/../h/ConsoleKernel.hpp ****     }
 1109              		.loc 3 17 9 is_stmt 1
  17:src/../h/ConsoleKernel.hpp ****     }
 1110              		.loc 3 17 17 is_stmt 0
 1111 06e8 93050000 		li	a1,0
 1112 06ec 13058911 		addi	a0,s2,280
 1113 06f0 97000000 		call	_Z8sem_openPP4_semj@plt
 1113      E7800000 
 1114              	.LVL100:
 1115              	.LEHE18:
 1116              	.LBE168:
 1117              	.LBE167:
 1118              	.LBE166:
  37:src/../h/ConsoleKernel.hpp ****         return instance;
 1119              		.loc 3 37 32
 1120 06f8 97070000 		sd	s2,.LANCHOR0,a5
 1120      23B02701 
 1121 0700 6FF0DFF1 		j	.L45
 1122              	.LVL101:
 1123              	.L47:
 1124 0704 93040500 		mv	s1,a0
  37:src/../h/ConsoleKernel.hpp ****         return instance;
GAS LISTING /tmp/ccrAem8Q.s 			page 27


 1125              		.loc 3 37 52
 1126 0708 13050900 		mv	a0,s2
 1127 070c 97000000 		call	_ZdlPv@plt
 1127      E7800000 
 1128              	.LVL102:
 1129 0714 13850400 		mv	a0,s1
 1130              	.LEHB19:
 1131 0718 97000000 		call	_Unwind_Resume@plt
 1131      E7800000 
 1132              	.LVL103:
 1133              	.LEHE19:
 1134              	.LBE175:
 1135              	.LBE176:
 1136              		.cfi_endproc
 1137              	.LFE36:
 1138              		.section	.gcc_except_table
 1139              	.LLSDA36:
 1140 00e9 FF       		.byte	0xff
 1141 00ea FF       		.byte	0xff
 1142 00eb 03       		.byte	0x3
 1143 00ec 27       		.byte	0x27
 1144 00ed 00000000 		.4byte	.LEHB17-.LFB36
 1145 00f1 00000000 		.4byte	.LEHE17-.LEHB17
 1146 00f5 00000000 		.4byte	0
 1147 00f9 00       		.byte	0
 1148 00fa 00000000 		.4byte	.LEHB18-.LFB36
 1149 00fe 00000000 		.4byte	.LEHE18-.LEHB18
 1150 0102 00000000 		.4byte	.L47-.LFB36
 1151 0106 00       		.byte	0
 1152 0107 00000000 		.4byte	.LEHB19-.LFB36
 1153 010b 00000000 		.4byte	.LEHE19-.LEHB19
 1154 010f 00000000 		.4byte	0
 1155 0113 00       		.byte	0
 1156              		.text
 1158              		.globl	_ZN13ConsoleKernel8instanceE
 1159              		.bss
 1160              		.align	3
 1161              		.set	.LANCHOR0,. + 0
 1164              	_ZN13ConsoleKernel8instanceE:
 1165 0000 00000000 		.zero	8
 1165      00000000 
 1166              		.text
 1167              	.Letext0:
 1168              		.file 5 "src/../h/../lib/hw.h"
 1169              		.file 6 "src/../h/../h/syscall_c.hpp"
 1170              		.file 7 "src/../h/list.hpp"
 5337              		.align	3
 5340              	DW.ref.__gxx_personality_v0:
 5341 0000 00000000 		.dword	__gxx_personality_v0
 5341      00000000 
 5342              		.ident	"GCC: (Ubuntu 9.4.0-1ubuntu1~20.04) 9.4.0"
 5343              		.section	.note.GNU-stack,"",@progbits
GAS LISTING /tmp/ccrAem8Q.s 			page 28

