GAS LISTING /tmp/ccrAem8Q.s 			page 1


   1              		.file	"ConsoleKernel.cpp"
   2              		.option pic
   3              		.option norelax
   4              		.text
   5              	.Ltext0:
   6              		.align	2
   7              		.globl	_ZN13ConsoleKernel13getCharKernelEPv
   9              	_ZN13ConsoleKernel13getCharKernelEPv:
  10              	.LFB33:
  11              		.file 1 "src/ConsoleKernel.cpp"
   1:src/ConsoleKernel.cpp **** //
   2:src/ConsoleKernel.cpp **** // Created by os on 6/26/23.
   3:src/ConsoleKernel.cpp **** //
   4:src/ConsoleKernel.cpp **** 
   5:src/ConsoleKernel.cpp **** #include "../h/ConsoleKernel.hpp"
   6:src/ConsoleKernel.cpp **** #include "../h/TCB.hpp"
   7:src/ConsoleKernel.cpp **** 
   8:src/ConsoleKernel.cpp **** ConsoleKernel* ConsoleKernel::instance = nullptr;
   9:src/ConsoleKernel.cpp **** 
  10:src/ConsoleKernel.cpp **** // Thread function for getting the character from the console and putting it in the input buffer.
  11:src/ConsoleKernel.cpp **** // Console -> input buffer
  12:src/ConsoleKernel.cpp **** void ConsoleKernel::getCharKernel(void* notUsed){
  12              		.loc 1 12 49
  13              		.cfi_startproc
  14              		.cfi_personality 0x9b,DW.ref.__gxx_personality_v0
  15              		.cfi_lsda 0x1b,.LLSDA33
  16              	.LVL0:
  13:src/ConsoleKernel.cpp ****     while(!(TCB::running->isFinished())){
  17              		.loc 1 13 5
  18              		.loc 1 13 11
  19              		.loc 1 13 37 is_stmt 0
  20 0000 97070000 		la	a5,_ZN3TCB7runningE
  20      83B70700 
  21 0008 83B70700 		ld	a5,0(a5)
  22              	.LVL1:
  23              	.LBB31:
  24              	.LBB32:
  25              		.file 2 "src/../h/TCB.hpp"
   1:src/../h/TCB.hpp **** //
   2:src/../h/TCB.hpp **** // Created by os on 6/20/23.
   3:src/../h/TCB.hpp **** //
   4:src/../h/TCB.hpp **** 
   5:src/../h/TCB.hpp **** #ifndef PROJECT_BASE_V1_1_TCB_HPP
   6:src/../h/TCB.hpp **** #define PROJECT_BASE_V1_1_TCB_HPP
   7:src/../h/TCB.hpp **** 
   8:src/../h/TCB.hpp **** #include "../lib/hw.h"
   9:src/../h/TCB.hpp **** #include "syscall_c.hpp"
  10:src/../h/TCB.hpp **** #include "../h/Scheduler.hpp"
  11:src/../h/TCB.hpp **** #include "list.hpp"
  12:src/../h/TCB.hpp **** 
  13:src/../h/TCB.hpp **** // ideja za klasu preuzeta sa vezbi
  14:src/../h/TCB.hpp **** class TCB {
  15:src/../h/TCB.hpp **** public:
  16:src/../h/TCB.hpp ****     TCB* next;
  17:src/../h/TCB.hpp ****     enum State{FINISHED, RUNNING, BLOCKED, SLEEPING};
  18:src/../h/TCB.hpp ****     using Body = void(*)(void*);
  19:src/../h/TCB.hpp ****     using Argument = void*;
GAS LISTING /tmp/ccrAem8Q.s 			page 2


  20:src/../h/TCB.hpp **** 
  21:src/../h/TCB.hpp ****     static TCB* createThread(Body body, Argument argument, uint8* st);
  22:src/../h/TCB.hpp **** 
  23:src/../h/TCB.hpp ****     // Finished
  24:src/../h/TCB.hpp ****     bool isFinished() const{ return this->state == FINISHED; }
  26              		.loc 2 24 30 is_stmt 1
  27              		.loc 2 24 43 is_stmt 0
  28 000c 83A78702 		lw	a5,40(a5)
  29              	.LVL2:
  30              	.LBE32:
  31              	.LBE31:
  32              		.loc 1 13 11
  33 0010 638A0724 		beqz	a5,.L16
  12:src/ConsoleKernel.cpp ****     while(!(TCB::running->isFinished())){
  34              		.loc 1 12 49
  35 0014 130101FE 		addi	sp,sp,-32
  36              		.cfi_def_cfa_offset 32
  37 0018 233C1100 		sd	ra,24(sp)
  38 001c 23388100 		sd	s0,16(sp)
  39 0020 23349100 		sd	s1,8(sp)
  40 0024 23302101 		sd	s2,0(sp)
  41              		.cfi_offset 1, -8
  42              		.cfi_offset 8, -16
  43              		.cfi_offset 9, -24
  44              		.cfi_offset 18, -32
  45 0028 13040102 		addi	s0,sp,32
  46              		.cfi_def_cfa 8, 0
  47 002c 6F008001 		j	.L12
  48              	.LVL3:
  49              	.L6:
  50              		.loc 1 13 5 is_stmt 1
  51              		.loc 1 13 11
  52              		.loc 1 13 37 is_stmt 0
  53 0030 97070000 		la	a5,_ZN3TCB7runningE
  53      83B70700 
  54 0038 83B70700 		ld	a5,0(a5)
  55              	.LVL4:
  56              	.LBB34:
  57              	.LBB33:
  58              		.loc 2 24 30 is_stmt 1
  59              		.loc 2 24 43 is_stmt 0
  60 003c 83A78702 		lw	a5,40(a5)
  61              	.LVL5:
  62              	.LBE33:
  63              	.LBE34:
  64              		.loc 1 13 11
  65 0040 63860720 		beqz	a5,.L1
  66              	.L12:
  14:src/ConsoleKernel.cpp ****         sem_wait(ConsoleKernel::get()->getSem);
  67              		.loc 1 14 9 is_stmt 1
  68              	.LBB35:
  69              	.LBB36:
  70              		.file 3 "src/../h/ConsoleKernel.hpp"
   1:src/../h/ConsoleKernel.hpp **** //
   2:src/../h/ConsoleKernel.hpp **** // Created by os on 6/26/23.
   3:src/../h/ConsoleKernel.hpp **** //
   4:src/../h/ConsoleKernel.hpp **** 
GAS LISTING /tmp/ccrAem8Q.s 			page 3


   5:src/../h/ConsoleKernel.hpp **** #ifndef PROJECT_BASE_V1_1_CONSOLEKERNEL_HPP
   6:src/../h/ConsoleKernel.hpp **** #define PROJECT_BASE_V1_1_CONSOLEKERNEL_HPP
   7:src/../h/ConsoleKernel.hpp **** #include "../lib/hw.h"
   8:src/../h/ConsoleKernel.hpp **** #include "../h/BufferKernel.hpp"
   9:src/../h/ConsoleKernel.hpp **** #include "syscall_c.hpp"
  10:src/../h/ConsoleKernel.hpp **** 
  11:src/../h/ConsoleKernel.hpp **** 
  12:src/../h/ConsoleKernel.hpp **** class ConsoleKernel{
  13:src/../h/ConsoleKernel.hpp **** private:
  14:src/../h/ConsoleKernel.hpp ****     static ConsoleKernel* instance;
  15:src/../h/ConsoleKernel.hpp ****     ConsoleKernel(){
  16:src/../h/ConsoleKernel.hpp ****         sem_open(&getSem,0);
  17:src/../h/ConsoleKernel.hpp ****         sem_open(&putSem,0);
  18:src/../h/ConsoleKernel.hpp ****     }
  19:src/../h/ConsoleKernel.hpp **** public:
  20:src/../h/ConsoleKernel.hpp ****     BufferKernel input; // Console -> input buffer
  21:src/../h/ConsoleKernel.hpp ****     BufferKernel output; // Output buffer -> console
  22:src/../h/ConsoleKernel.hpp **** 
  23:src/../h/ConsoleKernel.hpp ****     // These semaphores are used to prevent busy wait
  24:src/../h/ConsoleKernel.hpp ****     sem_t getSem;
  25:src/../h/ConsoleKernel.hpp ****     sem_t putSem;
  26:src/../h/ConsoleKernel.hpp **** 
  27:src/../h/ConsoleKernel.hpp ****     // Functions of threads that will work with hardware
  28:src/../h/ConsoleKernel.hpp ****     static void getCharKernel(void*);
  29:src/../h/ConsoleKernel.hpp ****     static void putCharKernel(void*);
  30:src/../h/ConsoleKernel.hpp **** 
  31:src/../h/ConsoleKernel.hpp ****     // Functions of system calls
  32:src/../h/ConsoleKernel.hpp ****     static void putc(char);
  33:src/../h/ConsoleKernel.hpp ****     static char getc();
  34:src/../h/ConsoleKernel.hpp **** 
  35:src/../h/ConsoleKernel.hpp ****     // Singleton mechanism
  36:src/../h/ConsoleKernel.hpp ****     static ConsoleKernel* get(){
  37:src/../h/ConsoleKernel.hpp ****         if(!instance) instance = new ConsoleKernel();
  71              		.loc 3 37 9
  72              		.loc 3 37 12 is_stmt 0
  73 0044 97070000 		ld	a5,.LANCHOR0
  73      83B70700 
  74              		.loc 3 37 9
  75 004c 638E0700 		beqz	a5,.L17
  76              	.L3:
  38:src/../h/ConsoleKernel.hpp ****         return instance;
  77              		.loc 3 38 9 is_stmt 1
  78              	.LBE36:
  79              	.LBE35:
  80              		.loc 1 14 17 is_stmt 0
  81 0050 97070000 		ld	a5,.LANCHOR0
  81      83B70700 
  82 0058 03B50711 		ld	a0,272(a5)
  83              	.LEHB0:
  84 005c 97000000 		call	_Z8sem_waitP4_sem@plt
  84      E7800000 
  85              	.LVL6:
  86 0064 6F008017 		j	.L4
  87              	.L17:
  88              	.LBB47:
  89              	.LBB46:
  37:src/../h/ConsoleKernel.hpp ****         return instance;
GAS LISTING /tmp/ccrAem8Q.s 			page 4


  90              		.loc 3 37 23 is_stmt 1
  37:src/../h/ConsoleKernel.hpp ****         return instance;
  91              		.loc 3 37 52 is_stmt 0
  92 0068 13050012 		li	a0,288
  93 006c 97000000 		call	_Znwm@plt
  93      E7800000 
  94              	.LVL7:
  95              	.LEHE0:
  96 0074 93040500 		mv	s1,a0
  97              	.LVL8:
  98              	.LBB37:
  99              	.LBB38:
 100              	.LBB39:
 101              	.LBB40:
 102              	.LBB41:
 103              	.LBB42:
 104              		.file 4 "src/../h/../h/BufferKernel.hpp"
   1:src/../h/../h/BufferKernel.hpp **** //
   2:src/../h/../h/BufferKernel.hpp **** // Created by os on 6/26/23.
   3:src/../h/../h/BufferKernel.hpp **** //
   4:src/../h/../h/BufferKernel.hpp **** 
   5:src/../h/../h/BufferKernel.hpp **** #ifndef PROJECT_BASE_V1_1_MYBUFFER_HPP
   6:src/../h/../h/BufferKernel.hpp **** #define PROJECT_BASE_V1_1_MYBUFFER_HPP
   7:src/../h/../h/BufferKernel.hpp **** #include "syscall_c.hpp"
   8:src/../h/../h/BufferKernel.hpp **** 
   9:src/../h/../h/BufferKernel.hpp **** class BufferKernel{
  10:src/../h/../h/BufferKernel.hpp **** private:
  11:src/../h/../h/BufferKernel.hpp ****     int head;
  12:src/../h/../h/BufferKernel.hpp ****     int tail;
  13:src/../h/../h/BufferKernel.hpp ****     int size;
  14:src/../h/../h/BufferKernel.hpp ****     static const int maxSize = 100;
  15:src/../h/../h/BufferKernel.hpp ****     char buffer[maxSize];
  16:src/../h/../h/BufferKernel.hpp **** 
  17:src/../h/../h/BufferKernel.hpp ****     // mutexSem is used to prevent multiple
  18:src/../h/../h/BufferKernel.hpp ****     // threads from accessing the same getc and putc functions.
  19:src/../h/../h/BufferKernel.hpp ****     // This won't happen because the system is in the privileged mode
  20:src/../h/../h/BufferKernel.hpp ****     // in the only instance where buffer is used which is for Console threads.
  21:src/../h/../h/BufferKernel.hpp ****     // However, putting this semaphore in a buffer is essential if it gets used
  22:src/../h/../h/BufferKernel.hpp ****     // in user mode where asynchronous dispatches are possible.
  23:src/../h/../h/BufferKernel.hpp ****     sem_t mutexSem;
  24:src/../h/../h/BufferKernel.hpp **** 
  25:src/../h/../h/BufferKernel.hpp ****     // spacePutAv and charGetAv are used to prevent invalid locations
  26:src/../h/../h/BufferKernel.hpp ****     // when operating with buffer in putc and getc
  27:src/../h/../h/BufferKernel.hpp ****     sem_t spacePutAv;
  28:src/../h/../h/BufferKernel.hpp ****     sem_t charGetAv;
  29:src/../h/../h/BufferKernel.hpp **** public:
  30:src/../h/../h/BufferKernel.hpp ****     BufferKernel(): head(0), tail(0), size(0){
 105              		.loc 4 30 45
 106 0078 23200500 		sw	zero,0(a0)
 107 007c 23220500 		sw	zero,4(a0)
 108 0080 23240500 		sw	zero,8(a0)
  31:src/../h/../h/BufferKernel.hpp ****         sem_open(&mutexSem, 1);
 109              		.loc 4 31 9 is_stmt 1
 110              		.loc 4 31 17 is_stmt 0
 111 0084 93051000 		li	a1,1
 112 0088 13050507 		addi	a0,a0,112
 113              	.LEHB1:
GAS LISTING /tmp/ccrAem8Q.s 			page 5


 114 008c 97000000 		call	_Z8sem_openPP4_semj@plt
 114      E7800000 
 115              	.LVL9:
  32:src/../h/../h/BufferKernel.hpp ****         sem_open(&spacePutAv, maxSize);
 116              		.loc 4 32 9 is_stmt 1
 117              		.loc 4 32 17 is_stmt 0
 118 0094 93054006 		li	a1,100
 119 0098 13858407 		addi	a0,s1,120
 120 009c 97000000 		call	_Z8sem_openPP4_semj@plt
 120      E7800000 
 121              	.LVL10:
  33:src/../h/../h/BufferKernel.hpp ****         sem_open(&charGetAv, 0);
 122              		.loc 4 33 9 is_stmt 1
 123              		.loc 4 33 17 is_stmt 0
 124 00a4 93050000 		li	a1,0
 125 00a8 13850408 		addi	a0,s1,128
 126 00ac 97000000 		call	_Z8sem_openPP4_semj@plt
 126      E7800000 
 127              	.LVL11:
 128              	.LBE42:
 129              	.LBE41:
 130              	.LBE40:
 131              	.LBB43:
 132              	.LBB44:
 133              	.LBB45:
  30:src/../h/../h/BufferKernel.hpp ****         sem_open(&mutexSem, 1);
 134              		.loc 4 30 45
 135 00b4 23A40408 		sw	zero,136(s1)
 136 00b8 23A60408 		sw	zero,140(s1)
 137 00bc 23A80408 		sw	zero,144(s1)
  31:src/../h/../h/BufferKernel.hpp ****         sem_open(&spacePutAv, maxSize);
 138              		.loc 4 31 9 is_stmt 1
  31:src/../h/../h/BufferKernel.hpp ****         sem_open(&spacePutAv, maxSize);
 139              		.loc 4 31 17 is_stmt 0
 140 00c0 93051000 		li	a1,1
 141 00c4 1385840F 		addi	a0,s1,248
 142 00c8 97000000 		call	_Z8sem_openPP4_semj@plt
 142      E7800000 
 143              	.LVL12:
  32:src/../h/../h/BufferKernel.hpp ****         sem_open(&charGetAv, 0);
 144              		.loc 4 32 9 is_stmt 1
  32:src/../h/../h/BufferKernel.hpp ****         sem_open(&charGetAv, 0);
 145              		.loc 4 32 17 is_stmt 0
 146 00d0 93054006 		li	a1,100
 147 00d4 13850410 		addi	a0,s1,256
 148 00d8 97000000 		call	_Z8sem_openPP4_semj@plt
 148      E7800000 
 149              	.LVL13:
 150              		.loc 4 33 9 is_stmt 1
 151              		.loc 4 33 17 is_stmt 0
 152 00e0 93050000 		li	a1,0
 153 00e4 13858410 		addi	a0,s1,264
 154 00e8 97000000 		call	_Z8sem_openPP4_semj@plt
 154      E7800000 
 155              	.LVL14:
 156              	.LBE45:
 157              	.LBE44:
GAS LISTING /tmp/ccrAem8Q.s 			page 6


 158              	.LBE43:
  16:src/../h/ConsoleKernel.hpp ****         sem_open(&putSem,0);
 159              		.loc 3 16 9 is_stmt 1
  16:src/../h/ConsoleKernel.hpp ****         sem_open(&putSem,0);
 160              		.loc 3 16 17 is_stmt 0
 161 00f0 93050000 		li	a1,0
 162 00f4 13850411 		addi	a0,s1,272
 163 00f8 97000000 		call	_Z8sem_openPP4_semj@plt
 163      E7800000 
 164              	.LVL15:
  17:src/../h/ConsoleKernel.hpp ****     }
 165              		.loc 3 17 9 is_stmt 1
  17:src/../h/ConsoleKernel.hpp ****     }
 166              		.loc 3 17 17 is_stmt 0
 167 0100 93050000 		li	a1,0
 168 0104 13858411 		addi	a0,s1,280
 169 0108 97000000 		call	_Z8sem_openPP4_semj@plt
 169      E7800000 
 170              	.LVL16:
 171              	.LEHE1:
 172              	.LBE39:
 173              	.LBE38:
 174              	.LBE37:
  37:src/../h/ConsoleKernel.hpp ****         return instance;
 175              		.loc 3 37 32
 176 0110 97070000 		sd	s1,.LANCHOR0,a5
 176      23B09700 
 177 0118 6FF09FF3 		j	.L3
 178              	.LVL17:
 179              	.L9:
 180 011c 13090500 		mv	s2,a0
  37:src/../h/ConsoleKernel.hpp ****         return instance;
 181              		.loc 3 37 52
 182 0120 13850400 		mv	a0,s1
 183 0124 97000000 		call	_ZdlPv@plt
 183      E7800000 
 184              	.LVL18:
 185 012c 13050900 		mv	a0,s2
 186              	.LEHB2:
 187 0130 97000000 		call	_Unwind_Resume@plt
 187      E7800000 
 188              	.LVL19:
 189              	.LEHE2:
 190              	.L18:
 191              	.LBE46:
 192              	.LBE47:
 193              	.LBB48:
 194              	.LBB49:
 195              	.LBB50:
 196              	.LBB51:
 197              	.LBB52:
 198              	.LBB53:
 199              	.LBB54:
 200              	.LBB55:
  32:src/../h/../h/BufferKernel.hpp ****         sem_open(&charGetAv, 0);
 201              		.loc 4 32 9 is_stmt 1
  32:src/../h/../h/BufferKernel.hpp ****         sem_open(&charGetAv, 0);
GAS LISTING /tmp/ccrAem8Q.s 			page 7


 202              		.loc 4 32 17 is_stmt 0
 203 0138 93054006 		li	a1,100
 204 013c 13858407 		addi	a0,s1,120
 205              	.LEHB3:
 206 0140 97000000 		call	_Z8sem_openPP4_semj@plt
 206      E7800000 
 207              	.LVL20:
 208              		.loc 4 33 9 is_stmt 1
 209              		.loc 4 33 17 is_stmt 0
 210 0148 93050000 		li	a1,0
 211 014c 13850408 		addi	a0,s1,128
 212 0150 97000000 		call	_Z8sem_openPP4_semj@plt
 212      E7800000 
 213              	.LVL21:
 214              	.LBE55:
 215              	.LBE54:
 216              	.LBE53:
 217              	.LBB58:
 218              	.LBB59:
 219              	.LBB60:
  30:src/../h/../h/BufferKernel.hpp ****         sem_open(&mutexSem, 1);
 220              		.loc 4 30 45
 221 0158 23A40408 		sw	zero,136(s1)
 222 015c 23A60408 		sw	zero,140(s1)
 223 0160 23A80408 		sw	zero,144(s1)
  31:src/../h/../h/BufferKernel.hpp ****         sem_open(&spacePutAv, maxSize);
 224              		.loc 4 31 9 is_stmt 1
  31:src/../h/../h/BufferKernel.hpp ****         sem_open(&spacePutAv, maxSize);
 225              		.loc 4 31 17 is_stmt 0
 226 0164 93051000 		li	a1,1
 227 0168 1385840F 		addi	a0,s1,248
 228 016c 97000000 		call	_Z8sem_openPP4_semj@plt
 228      E7800000 
 229              	.LVL22:
  32:src/../h/../h/BufferKernel.hpp ****         sem_open(&charGetAv, 0);
 230              		.loc 4 32 9 is_stmt 1
  32:src/../h/../h/BufferKernel.hpp ****         sem_open(&charGetAv, 0);
 231              		.loc 4 32 17 is_stmt 0
 232 0174 93054006 		li	a1,100
 233 0178 13850410 		addi	a0,s1,256
 234 017c 97000000 		call	_Z8sem_openPP4_semj@plt
 234      E7800000 
 235              	.LVL23:
 236              		.loc 4 33 9 is_stmt 1
 237              		.loc 4 33 17 is_stmt 0
 238 0184 93050000 		li	a1,0
 239 0188 13858410 		addi	a0,s1,264
 240 018c 97000000 		call	_Z8sem_openPP4_semj@plt
 240      E7800000 
 241              	.LVL24:
 242              	.LBE60:
 243              	.LBE59:
 244              	.LBE58:
  16:src/../h/ConsoleKernel.hpp ****         sem_open(&putSem,0);
 245              		.loc 3 16 9 is_stmt 1
  16:src/../h/ConsoleKernel.hpp ****         sem_open(&putSem,0);
 246              		.loc 3 16 17 is_stmt 0
GAS LISTING /tmp/ccrAem8Q.s 			page 8


 247 0194 93050000 		li	a1,0
 248 0198 13850411 		addi	a0,s1,272
 249 019c 97000000 		call	_Z8sem_openPP4_semj@plt
 249      E7800000 
 250              	.LVL25:
  17:src/../h/ConsoleKernel.hpp ****     }
 251              		.loc 3 17 9 is_stmt 1
  17:src/../h/ConsoleKernel.hpp ****     }
 252              		.loc 3 17 17 is_stmt 0
 253 01a4 93050000 		li	a1,0
 254 01a8 13858411 		addi	a0,s1,280
 255 01ac 97000000 		call	_Z8sem_openPP4_semj@plt
 255      E7800000 
 256              	.LVL26:
 257              	.LEHE3:
 258              	.LBE52:
 259              	.LBE51:
 260              	.LBE50:
  37:src/../h/ConsoleKernel.hpp ****         return instance;
 261              		.loc 3 37 32
 262 01b4 97070000 		sd	s1,.LANCHOR0,a5
 262      23B09700 
 263              	.L7:
 264              		.loc 3 38 9 is_stmt 1
 265              	.LBE49:
 266              	.LBE48:
  15:src/ConsoleKernel.cpp ****         while (  *((char*)CONSOLE_STATUS) & CONSOLE_RX_STATUS_BIT )
  16:src/ConsoleKernel.cpp ****             ConsoleKernel::get()->input.put(*((char*)CONSOLE_RX_DATA));
 267              		.loc 1 16 44 is_stmt 0
 268 01bc 97070000 		la	a5,CONSOLE_RX_DATA
 268      83B70700 
 269 01c4 83B70700 		ld	a5,0(a5)
 270 01c8 83C50700 		lbu	a1,0(a5)
 271 01cc 17050000 		ld	a0,.LANCHOR0
 271      03350500 
 272              	.LEHB4:
 273 01d4 97000000 		call	_ZN12BufferKernel3putEc@plt
 273      E7800000 
 274              	.LVL27:
 275              	.L4:
  15:src/ConsoleKernel.cpp ****         while (  *((char*)CONSOLE_STATUS) & CONSOLE_RX_STATUS_BIT )
 276              		.loc 1 15 9 is_stmt 1
  15:src/ConsoleKernel.cpp ****         while (  *((char*)CONSOLE_STATUS) & CONSOLE_RX_STATUS_BIT )
 277              		.loc 1 15 45
  15:src/ConsoleKernel.cpp ****         while (  *((char*)CONSOLE_STATUS) & CONSOLE_RX_STATUS_BIT )
 278              		.loc 1 15 18 is_stmt 0
 279 01dc 97070000 		la	a5,CONSOLE_STATUS
 279      83B70700 
 280 01e4 83B70700 		ld	a5,0(a5)
 281 01e8 83C70700 		lbu	a5,0(a5)
  15:src/ConsoleKernel.cpp ****         while (  *((char*)CONSOLE_STATUS) & CONSOLE_RX_STATUS_BIT )
 282              		.loc 1 15 45
 283 01ec 93F71700 		andi	a5,a5,1
 284 01f0 E38007E4 		beqz	a5,.L6
 285              		.loc 1 16 13 is_stmt 1
 286              	.LBB66:
 287              	.LBB65:
GAS LISTING /tmp/ccrAem8Q.s 			page 9


  37:src/../h/ConsoleKernel.hpp ****         return instance;
 288              		.loc 3 37 9
  37:src/../h/ConsoleKernel.hpp ****         return instance;
 289              		.loc 3 37 12 is_stmt 0
 290 01f4 97070000 		ld	a5,.LANCHOR0
 290      83B70700 
  37:src/../h/ConsoleKernel.hpp ****         return instance;
 291              		.loc 3 37 9
 292 01fc E39007FC 		bnez	a5,.L7
  37:src/../h/ConsoleKernel.hpp ****         return instance;
 293              		.loc 3 37 23 is_stmt 1
  37:src/../h/ConsoleKernel.hpp ****         return instance;
 294              		.loc 3 37 52 is_stmt 0
 295 0200 13050012 		li	a0,288
 296 0204 97000000 		call	_Znwm@plt
 296      E7800000 
 297              	.LVL28:
 298              	.LEHE4:
 299 020c 93040500 		mv	s1,a0
 300              	.LVL29:
 301              	.LBB64:
 302              	.LBB63:
 303              	.LBB62:
 304              	.LBB61:
 305              	.LBB57:
 306              	.LBB56:
  30:src/../h/../h/BufferKernel.hpp ****         sem_open(&mutexSem, 1);
 307              		.loc 4 30 45
 308 0210 23200500 		sw	zero,0(a0)
 309 0214 23220500 		sw	zero,4(a0)
 310 0218 23240500 		sw	zero,8(a0)
  31:src/../h/../h/BufferKernel.hpp ****         sem_open(&spacePutAv, maxSize);
 311              		.loc 4 31 9 is_stmt 1
  31:src/../h/../h/BufferKernel.hpp ****         sem_open(&spacePutAv, maxSize);
 312              		.loc 4 31 17 is_stmt 0
 313 021c 93051000 		li	a1,1
 314 0220 13050507 		addi	a0,a0,112
 315              	.LEHB5:
 316 0224 97000000 		call	_Z8sem_openPP4_semj@plt
 316      E7800000 
 317              	.LVL30:
 318              	.LEHE5:
 319 022c 6FF0DFF0 		j	.L18
 320              	.LVL31:
 321              	.L10:
 322 0230 13090500 		mv	s2,a0
 323              	.LBE56:
 324              	.LBE57:
 325              	.LBE61:
 326              	.LBE62:
 327              	.LBE63:
 328              	.LBE64:
  37:src/../h/ConsoleKernel.hpp ****         return instance;
 329              		.loc 3 37 52
 330 0234 13850400 		mv	a0,s1
 331 0238 97000000 		call	_ZdlPv@plt
 331      E7800000 
GAS LISTING /tmp/ccrAem8Q.s 			page 10


 332              	.LVL32:
 333 0240 13050900 		mv	a0,s2
 334              	.LEHB6:
 335 0244 97000000 		call	_Unwind_Resume@plt
 335      E7800000 
 336              	.LVL33:
 337              	.LEHE6:
 338              	.L1:
 339              	.LBE65:
 340              	.LBE66:
  17:src/ConsoleKernel.cpp ****     }
  18:src/ConsoleKernel.cpp **** }
 341              		.loc 1 18 1
 342 024c 83308101 		ld	ra,24(sp)
 343              		.cfi_restore 1
 344 0250 03340101 		ld	s0,16(sp)
 345              		.cfi_restore 8
 346              		.cfi_def_cfa 2, 32
 347 0254 83348100 		ld	s1,8(sp)
 348              		.cfi_restore 9
 349 0258 03390100 		ld	s2,0(sp)
 350              		.cfi_restore 18
 351 025c 13010102 		addi	sp,sp,32
 352              		.cfi_def_cfa_offset 0
 353 0260 67800000 		jr	ra
 354              	.LVL34:
 355              	.L16:
 356 0264 67800000 		ret
 357              		.cfi_endproc
 358              	.LFE33:
 359              		.globl	__gxx_personality_v0
 360              		.section	.gcc_except_table,"a",@progbits
 361              	.LLSDA33:
 362 0000 FF       		.byte	0xff
 363 0001 FF       		.byte	0xff
 364 0002 03       		.byte	0x3
 365 0003 5B       		.byte	0x5b
 366 0004 00000000 		.4byte	.LEHB0-.LFB33
 367 0008 00000000 		.4byte	.LEHE0-.LEHB0
 368 000c 00000000 		.4byte	0
 369 0010 00       		.byte	0
 370 0011 00000000 		.4byte	.LEHB1-.LFB33
 371 0015 00000000 		.4byte	.LEHE1-.LEHB1
 372 0019 00000000 		.4byte	.L9-.LFB33
 373 001d 00       		.byte	0
 374 001e 00000000 		.4byte	.LEHB2-.LFB33
 375 0022 00000000 		.4byte	.LEHE2-.LEHB2
 376 0026 00000000 		.4byte	0
 377 002a 00       		.byte	0
 378 002b 00000000 		.4byte	.LEHB3-.LFB33
 379 002f 00000000 		.4byte	.LEHE3-.LEHB3
 380 0033 00000000 		.4byte	.L10-.LFB33
 381 0037 00       		.byte	0
 382 0038 00000000 		.4byte	.LEHB4-.LFB33
 383 003c 00000000 		.4byte	.LEHE4-.LEHB4
 384 0040 00000000 		.4byte	0
 385 0044 00       		.byte	0
GAS LISTING /tmp/ccrAem8Q.s 			page 11


 386 0045 00000000 		.4byte	.LEHB5-.LFB33
 387 0049 00000000 		.4byte	.LEHE5-.LEHB5
 388 004d 00000000 		.4byte	.L10-.LFB33
 389 0051 00       		.byte	0
 390 0052 00000000 		.4byte	.LEHB6-.LFB33
 391 0056 00000000 		.4byte	.LEHE6-.LEHB6
 392 005a 00000000 		.4byte	0
 393 005e 00       		.byte	0
 394              		.text
 396              		.align	2
 397              		.globl	_ZN13ConsoleKernel13putCharKernelEPv
 399              	_ZN13ConsoleKernel13putCharKernelEPv:
 400              	.LFB34:
  19:src/ConsoleKernel.cpp **** 
  20:src/ConsoleKernel.cpp **** // Thread function for getting the character from the output buffer and putting it on the console.
  21:src/ConsoleKernel.cpp **** // Output buffer -> console
  22:src/ConsoleKernel.cpp **** void ConsoleKernel::putCharKernel(void* notUsed){
 401              		.loc 1 22 49 is_stmt 1
 402              		.cfi_startproc
 403              		.cfi_personality 0x9b,DW.ref.__gxx_personality_v0
 404              		.cfi_lsda 0x1b,.LLSDA34
 405              	.LVL35:
  23:src/ConsoleKernel.cpp ****     while(!(TCB::running->isFinished())){
 406              		.loc 1 23 5
 407              		.loc 1 23 11
 408              		.loc 1 23 37 is_stmt 0
 409 0268 97070000 		la	a5,_ZN3TCB7runningE
 409      83B70700 
 410 0270 83B70700 		ld	a5,0(a5)
 411              	.LVL36:
 412              	.LBB92:
 413              	.LBB93:
 414              		.loc 2 24 30 is_stmt 1
 415              		.loc 2 24 43 is_stmt 0
 416 0274 83A78702 		lw	a5,40(a5)
 417              	.LVL37:
 418              	.LBE93:
 419              	.LBE92:
 420              		.loc 1 23 11
 421 0278 638C0724 		beqz	a5,.L34
  22:src/ConsoleKernel.cpp ****     while(!(TCB::running->isFinished())){
 422              		.loc 1 22 49
 423 027c 130101FE 		addi	sp,sp,-32
 424              		.cfi_def_cfa_offset 32
 425 0280 233C1100 		sd	ra,24(sp)
 426 0284 23388100 		sd	s0,16(sp)
 427 0288 23349100 		sd	s1,8(sp)
 428 028c 23302101 		sd	s2,0(sp)
 429              		.cfi_offset 1, -8
 430              		.cfi_offset 8, -16
 431              		.cfi_offset 9, -24
 432              		.cfi_offset 18, -32
 433 0290 13040102 		addi	s0,sp,32
 434              		.cfi_def_cfa 8, 0
 435 0294 6F008001 		j	.L30
 436              	.LVL38:
 437              	.L24:
GAS LISTING /tmp/ccrAem8Q.s 			page 12


 438              		.loc 1 23 5 is_stmt 1
 439              		.loc 1 23 11
 440              		.loc 1 23 37 is_stmt 0
 441 0298 97070000 		la	a5,_ZN3TCB7runningE
 441      83B70700 
 442 02a0 83B70700 		ld	a5,0(a5)
 443              	.LVL39:
 444              	.LBB95:
 445              	.LBB94:
 446              		.loc 2 24 30 is_stmt 1
 447              		.loc 2 24 43 is_stmt 0
 448 02a4 83A78702 		lw	a5,40(a5)
 449              	.LVL40:
 450              	.LBE94:
 451              	.LBE95:
 452              		.loc 1 23 11
 453 02a8 63880720 		beqz	a5,.L19
 454              	.L30:
 455              	.LBB96:
  24:src/ConsoleKernel.cpp ****         sem_wait(ConsoleKernel::get()->putSem);
 456              		.loc 1 24 9 is_stmt 1
 457              	.LBB97:
 458              	.LBB98:
  37:src/../h/ConsoleKernel.hpp ****         return instance;
 459              		.loc 3 37 9
  37:src/../h/ConsoleKernel.hpp ****         return instance;
 460              		.loc 3 37 12 is_stmt 0
 461 02ac 97070000 		ld	a5,.LANCHOR0
 461      83B70700 
  37:src/../h/ConsoleKernel.hpp ****         return instance;
 462              		.loc 3 37 9
 463 02b4 638E0700 		beqz	a5,.L35
 464              	.L21:
 465              		.loc 3 38 9 is_stmt 1
 466              	.LBE98:
 467              	.LBE97:
 468              		.loc 1 24 17 is_stmt 0
 469 02b8 97070000 		ld	a5,.LANCHOR0
 469      83B70700 
 470 02c0 03B58711 		ld	a0,280(a5)
 471              	.LEHB7:
 472 02c4 97000000 		call	_Z8sem_waitP4_sem@plt
 472      E7800000 
 473              	.LVL41:
 474 02cc 6F00C017 		j	.L22
 475              	.L35:
 476              	.LBB109:
 477              	.LBB108:
  37:src/../h/ConsoleKernel.hpp ****         return instance;
 478              		.loc 3 37 23 is_stmt 1
  37:src/../h/ConsoleKernel.hpp ****         return instance;
 479              		.loc 3 37 52 is_stmt 0
 480 02d0 13050012 		li	a0,288
 481 02d4 97000000 		call	_Znwm@plt
 481      E7800000 
 482              	.LVL42:
 483              	.LEHE7:
GAS LISTING /tmp/ccrAem8Q.s 			page 13


 484 02dc 93040500 		mv	s1,a0
 485              	.LVL43:
 486              	.LBB99:
 487              	.LBB100:
 488              	.LBB101:
 489              	.LBB102:
 490              	.LBB103:
 491              	.LBB104:
  30:src/../h/../h/BufferKernel.hpp ****         sem_open(&mutexSem, 1);
 492              		.loc 4 30 45
 493 02e0 23200500 		sw	zero,0(a0)
 494 02e4 23220500 		sw	zero,4(a0)
 495 02e8 23240500 		sw	zero,8(a0)
  31:src/../h/../h/BufferKernel.hpp ****         sem_open(&spacePutAv, maxSize);
 496              		.loc 4 31 9 is_stmt 1
  31:src/../h/../h/BufferKernel.hpp ****         sem_open(&spacePutAv, maxSize);
 497              		.loc 4 31 17 is_stmt 0
 498 02ec 93051000 		li	a1,1
 499 02f0 13050507 		addi	a0,a0,112
 500              	.LEHB8:
 501 02f4 97000000 		call	_Z8sem_openPP4_semj@plt
 501      E7800000 
 502              	.LVL44:
  32:src/../h/../h/BufferKernel.hpp ****         sem_open(&charGetAv, 0);
 503              		.loc 4 32 9 is_stmt 1
  32:src/../h/../h/BufferKernel.hpp ****         sem_open(&charGetAv, 0);
 504              		.loc 4 32 17 is_stmt 0
 505 02fc 93054006 		li	a1,100
 506 0300 13858407 		addi	a0,s1,120
 507 0304 97000000 		call	_Z8sem_openPP4_semj@plt
 507      E7800000 
 508              	.LVL45:
 509              		.loc 4 33 9 is_stmt 1
 510              		.loc 4 33 17 is_stmt 0
 511 030c 93050000 		li	a1,0
 512 0310 13850408 		addi	a0,s1,128
 513 0314 97000000 		call	_Z8sem_openPP4_semj@plt
 513      E7800000 
 514              	.LVL46:
 515              	.LBE104:
 516              	.LBE103:
 517              	.LBE102:
 518              	.LBB105:
 519              	.LBB106:
 520              	.LBB107:
  30:src/../h/../h/BufferKernel.hpp ****         sem_open(&mutexSem, 1);
 521              		.loc 4 30 45
 522 031c 23A40408 		sw	zero,136(s1)
 523 0320 23A60408 		sw	zero,140(s1)
 524 0324 23A80408 		sw	zero,144(s1)
  31:src/../h/../h/BufferKernel.hpp ****         sem_open(&spacePutAv, maxSize);
 525              		.loc 4 31 9 is_stmt 1
  31:src/../h/../h/BufferKernel.hpp ****         sem_open(&spacePutAv, maxSize);
 526              		.loc 4 31 17 is_stmt 0
 527 0328 93051000 		li	a1,1
 528 032c 1385840F 		addi	a0,s1,248
 529 0330 97000000 		call	_Z8sem_openPP4_semj@plt
GAS LISTING /tmp/ccrAem8Q.s 			page 14


 529      E7800000 
 530              	.LVL47:
  32:src/../h/../h/BufferKernel.hpp ****         sem_open(&charGetAv, 0);
 531              		.loc 4 32 9 is_stmt 1
  32:src/../h/../h/BufferKernel.hpp ****         sem_open(&charGetAv, 0);
 532              		.loc 4 32 17 is_stmt 0
 533 0338 93054006 		li	a1,100
 534 033c 13850410 		addi	a0,s1,256
 535 0340 97000000 		call	_Z8sem_openPP4_semj@plt
 535      E7800000 
 536              	.LVL48:
 537              		.loc 4 33 9 is_stmt 1
 538              		.loc 4 33 17 is_stmt 0
 539 0348 93050000 		li	a1,0
 540 034c 13858410 		addi	a0,s1,264
 541 0350 97000000 		call	_Z8sem_openPP4_semj@plt
 541      E7800000 
 542              	.LVL49:
 543              	.LBE107:
 544              	.LBE106:
 545              	.LBE105:
  16:src/../h/ConsoleKernel.hpp ****         sem_open(&putSem,0);
 546              		.loc 3 16 9 is_stmt 1
  16:src/../h/ConsoleKernel.hpp ****         sem_open(&putSem,0);
 547              		.loc 3 16 17 is_stmt 0
 548 0358 93050000 		li	a1,0
 549 035c 13850411 		addi	a0,s1,272
 550 0360 97000000 		call	_Z8sem_openPP4_semj@plt
 550      E7800000 
 551              	.LVL50:
  17:src/../h/ConsoleKernel.hpp ****     }
 552              		.loc 3 17 9 is_stmt 1
  17:src/../h/ConsoleKernel.hpp ****     }
 553              		.loc 3 17 17 is_stmt 0
 554 0368 93050000 		li	a1,0
 555 036c 13858411 		addi	a0,s1,280
 556 0370 97000000 		call	_Z8sem_openPP4_semj@plt
 556      E7800000 
 557              	.LVL51:
 558              	.LEHE8:
 559              	.LBE101:
 560              	.LBE100:
 561              	.LBE99:
  37:src/../h/ConsoleKernel.hpp ****         return instance;
 562              		.loc 3 37 32
 563 0378 97070000 		sd	s1,.LANCHOR0,a5
 563      23B09700 
 564 0380 6FF09FF3 		j	.L21
 565              	.LVL52:
 566              	.L27:
 567 0384 13090500 		mv	s2,a0
  37:src/../h/ConsoleKernel.hpp ****         return instance;
 568              		.loc 3 37 52
 569 0388 13850400 		mv	a0,s1
 570 038c 97000000 		call	_ZdlPv@plt
 570      E7800000 
 571              	.LVL53:
GAS LISTING /tmp/ccrAem8Q.s 			page 15


 572 0394 13050900 		mv	a0,s2
 573              	.LEHB9:
 574 0398 97000000 		call	_Unwind_Resume@plt
 574      E7800000 
 575              	.LVL54:
 576              	.LEHE9:
 577              	.L36:
 578              	.LBE108:
 579              	.LBE109:
 580              	.LBB110:
 581              	.LBB111:
 582              	.LBB112:
 583              	.LBB113:
 584              	.LBB114:
 585              	.LBB115:
 586              	.LBB116:
 587              	.LBB117:
  32:src/../h/../h/BufferKernel.hpp ****         sem_open(&charGetAv, 0);
 588              		.loc 4 32 9 is_stmt 1
  32:src/../h/../h/BufferKernel.hpp ****         sem_open(&charGetAv, 0);
 589              		.loc 4 32 17 is_stmt 0
 590 03a0 93054006 		li	a1,100
 591 03a4 13858407 		addi	a0,s1,120
 592              	.LEHB10:
 593 03a8 97000000 		call	_Z8sem_openPP4_semj@plt
 593      E7800000 
 594              	.LVL55:
 595              		.loc 4 33 9 is_stmt 1
 596              		.loc 4 33 17 is_stmt 0
 597 03b0 93050000 		li	a1,0
 598 03b4 13850408 		addi	a0,s1,128
 599 03b8 97000000 		call	_Z8sem_openPP4_semj@plt
 599      E7800000 
 600              	.LVL56:
 601              	.LBE117:
 602              	.LBE116:
 603              	.LBE115:
 604              	.LBB120:
 605              	.LBB121:
 606              	.LBB122:
  30:src/../h/../h/BufferKernel.hpp ****         sem_open(&mutexSem, 1);
 607              		.loc 4 30 45
 608 03c0 23A40408 		sw	zero,136(s1)
 609 03c4 23A60408 		sw	zero,140(s1)
 610 03c8 23A80408 		sw	zero,144(s1)
  31:src/../h/../h/BufferKernel.hpp ****         sem_open(&spacePutAv, maxSize);
 611              		.loc 4 31 9 is_stmt 1
  31:src/../h/../h/BufferKernel.hpp ****         sem_open(&spacePutAv, maxSize);
 612              		.loc 4 31 17 is_stmt 0
 613 03cc 93051000 		li	a1,1
 614 03d0 1385840F 		addi	a0,s1,248
 615 03d4 97000000 		call	_Z8sem_openPP4_semj@plt
 615      E7800000 
 616              	.LVL57:
  32:src/../h/../h/BufferKernel.hpp ****         sem_open(&charGetAv, 0);
 617              		.loc 4 32 9 is_stmt 1
  32:src/../h/../h/BufferKernel.hpp ****         sem_open(&charGetAv, 0);
GAS LISTING /tmp/ccrAem8Q.s 			page 16


 618              		.loc 4 32 17 is_stmt 0
 619 03dc 93054006 		li	a1,100
 620 03e0 13850410 		addi	a0,s1,256
 621 03e4 97000000 		call	_Z8sem_openPP4_semj@plt
 621      E7800000 
 622              	.LVL58:
 623              		.loc 4 33 9 is_stmt 1
 624              		.loc 4 33 17 is_stmt 0
 625 03ec 93050000 		li	a1,0
 626 03f0 13858410 		addi	a0,s1,264
 627 03f4 97000000 		call	_Z8sem_openPP4_semj@plt
 627      E7800000 
 628              	.LVL59:
 629              	.LBE122:
 630              	.LBE121:
 631              	.LBE120:
  16:src/../h/ConsoleKernel.hpp ****         sem_open(&putSem,0);
 632              		.loc 3 16 9 is_stmt 1
  16:src/../h/ConsoleKernel.hpp ****         sem_open(&putSem,0);
 633              		.loc 3 16 17 is_stmt 0
 634 03fc 93050000 		li	a1,0
 635 0400 13850411 		addi	a0,s1,272
 636 0404 97000000 		call	_Z8sem_openPP4_semj@plt
 636      E7800000 
 637              	.LVL60:
  17:src/../h/ConsoleKernel.hpp ****     }
 638              		.loc 3 17 9 is_stmt 1
  17:src/../h/ConsoleKernel.hpp ****     }
 639              		.loc 3 17 17 is_stmt 0
 640 040c 93050000 		li	a1,0
 641 0410 13858411 		addi	a0,s1,280
 642 0414 97000000 		call	_Z8sem_openPP4_semj@plt
 642      E7800000 
 643              	.LVL61:
 644              	.LEHE10:
 645              	.LBE114:
 646              	.LBE113:
 647              	.LBE112:
  37:src/../h/ConsoleKernel.hpp ****         return instance;
 648              		.loc 3 37 32
 649 041c 97070000 		sd	s1,.LANCHOR0,a5
 649      23B09700 
 650              	.L25:
 651              		.loc 3 38 9 is_stmt 1
 652              	.LBE111:
 653              	.LBE110:
  25:src/ConsoleKernel.cpp ****         char c;
  26:src/ConsoleKernel.cpp ****         while ( *((char*)CONSOLE_STATUS) & CONSOLE_TX_STATUS_BIT ) {
  27:src/ConsoleKernel.cpp ****             c = ConsoleKernel::get()->output.get();
 654              		.loc 1 27 49 is_stmt 0
 655 0424 17050000 		ld	a0,.LANCHOR0
 655      03350500 
 656 042c 13058508 		addi	a0,a0,136
 657              	.LEHB11:
 658 0430 97000000 		call	_ZN12BufferKernel3getEv@plt
 658      E7800000 
 659              	.LVL62:
GAS LISTING /tmp/ccrAem8Q.s 			page 17


  28:src/ConsoleKernel.cpp **** //            if (c != '\x1b') {
  29:src/ConsoleKernel.cpp **** //                if (c == '\r') c = '\n';
  30:src/ConsoleKernel.cpp ****                 *((char *) CONSOLE_TX_DATA) = c;
 660              		.loc 1 30 17 is_stmt 1
 661 0438 97070000 		la	a5,CONSOLE_TX_DATA
 661      83B70700 
 662 0440 83B70700 		ld	a5,0(a5)
 663              		.loc 1 30 45 is_stmt 0
 664 0444 2380A700 		sb	a0,0(a5)
 665              	.LVL63:
 666              	.L22:
  25:src/ConsoleKernel.cpp ****         char c;
 667              		.loc 1 25 9 is_stmt 1
  26:src/ConsoleKernel.cpp ****             c = ConsoleKernel::get()->output.get();
 668              		.loc 1 26 9
  26:src/ConsoleKernel.cpp ****             c = ConsoleKernel::get()->output.get();
 669              		.loc 1 26 44
  26:src/ConsoleKernel.cpp ****             c = ConsoleKernel::get()->output.get();
 670              		.loc 1 26 17 is_stmt 0
 671 0448 97070000 		la	a5,CONSOLE_STATUS
 671      83B70700 
 672 0450 83B70700 		ld	a5,0(a5)
 673 0454 83C70700 		lbu	a5,0(a5)
  26:src/ConsoleKernel.cpp ****             c = ConsoleKernel::get()->output.get();
 674              		.loc 1 26 44
 675 0458 93F70702 		andi	a5,a5,32
 676 045c E38E07E2 		beqz	a5,.L24
  27:src/ConsoleKernel.cpp **** //            if (c != '\x1b') {
 677              		.loc 1 27 13 is_stmt 1
 678              	.LBB128:
 679              	.LBB127:
  37:src/../h/ConsoleKernel.hpp ****         return instance;
 680              		.loc 3 37 9
  37:src/../h/ConsoleKernel.hpp ****         return instance;
 681              		.loc 3 37 12 is_stmt 0
 682 0460 97070000 		ld	a5,.LANCHOR0
 682      83B70700 
  37:src/../h/ConsoleKernel.hpp ****         return instance;
 683              		.loc 3 37 9
 684 0468 E39E07FA 		bnez	a5,.L25
  37:src/../h/ConsoleKernel.hpp ****         return instance;
 685              		.loc 3 37 23 is_stmt 1
  37:src/../h/ConsoleKernel.hpp ****         return instance;
 686              		.loc 3 37 52 is_stmt 0
 687 046c 13050012 		li	a0,288
 688 0470 97000000 		call	_Znwm@plt
 688      E7800000 
 689              	.LVL64:
 690              	.LEHE11:
 691 0478 93040500 		mv	s1,a0
 692              	.LVL65:
 693              	.LBB126:
 694              	.LBB125:
 695              	.LBB124:
 696              	.LBB123:
 697              	.LBB119:
 698              	.LBB118:
GAS LISTING /tmp/ccrAem8Q.s 			page 18


  30:src/../h/../h/BufferKernel.hpp ****         sem_open(&mutexSem, 1);
 699              		.loc 4 30 45
 700 047c 23200500 		sw	zero,0(a0)
 701 0480 23220500 		sw	zero,4(a0)
 702 0484 23240500 		sw	zero,8(a0)
  31:src/../h/../h/BufferKernel.hpp ****         sem_open(&spacePutAv, maxSize);
 703              		.loc 4 31 9 is_stmt 1
  31:src/../h/../h/BufferKernel.hpp ****         sem_open(&spacePutAv, maxSize);
 704              		.loc 4 31 17 is_stmt 0
 705 0488 93051000 		li	a1,1
 706 048c 13050507 		addi	a0,a0,112
 707              	.LEHB12:
 708 0490 97000000 		call	_Z8sem_openPP4_semj@plt
 708      E7800000 
 709              	.LVL66:
 710              	.LEHE12:
 711 0498 6FF09FF0 		j	.L36
 712              	.LVL67:
 713              	.L28:
 714 049c 13090500 		mv	s2,a0
 715              	.LBE118:
 716              	.LBE119:
 717              	.LBE123:
 718              	.LBE124:
 719              	.LBE125:
 720              	.LBE126:
  37:src/../h/ConsoleKernel.hpp ****         return instance;
 721              		.loc 3 37 52
 722 04a0 13850400 		mv	a0,s1
 723 04a4 97000000 		call	_ZdlPv@plt
 723      E7800000 
 724              	.LVL68:
 725 04ac 13050900 		mv	a0,s2
 726              	.LEHB13:
 727 04b0 97000000 		call	_Unwind_Resume@plt
 727      E7800000 
 728              	.LVL69:
 729              	.LEHE13:
 730              	.L19:
 731              	.LBE127:
 732              	.LBE128:
 733              	.LBE96:
  31:src/ConsoleKernel.cpp **** //            }
  32:src/ConsoleKernel.cpp ****         }
  33:src/ConsoleKernel.cpp ****     }
  34:src/ConsoleKernel.cpp **** }
 734              		.loc 1 34 1
 735 04b8 83308101 		ld	ra,24(sp)
 736              		.cfi_restore 1
 737 04bc 03340101 		ld	s0,16(sp)
 738              		.cfi_restore 8
 739              		.cfi_def_cfa 2, 32
 740 04c0 83348100 		ld	s1,8(sp)
 741              		.cfi_restore 9
 742 04c4 03390100 		ld	s2,0(sp)
 743              		.cfi_restore 18
 744 04c8 13010102 		addi	sp,sp,32
GAS LISTING /tmp/ccrAem8Q.s 			page 19


 745              		.cfi_def_cfa_offset 0
 746 04cc 67800000 		jr	ra
 747              	.LVL70:
 748              	.L34:
 749 04d0 67800000 		ret
 750              		.cfi_endproc
 751              	.LFE34:
 752              		.section	.gcc_except_table
 753              	.LLSDA34:
 754 005f FF       		.byte	0xff
 755 0060 FF       		.byte	0xff
 756 0061 03       		.byte	0x3
 757 0062 5B       		.byte	0x5b
 758 0063 00000000 		.4byte	.LEHB7-.LFB34
 759 0067 00000000 		.4byte	.LEHE7-.LEHB7
 760 006b 00000000 		.4byte	0
 761 006f 00       		.byte	0
 762 0070 00000000 		.4byte	.LEHB8-.LFB34
 763 0074 00000000 		.4byte	.LEHE8-.LEHB8
 764 0078 00000000 		.4byte	.L27-.LFB34
 765 007c 00       		.byte	0
 766 007d 00000000 		.4byte	.LEHB9-.LFB34
 767 0081 00000000 		.4byte	.LEHE9-.LEHB9
 768 0085 00000000 		.4byte	0
 769 0089 00       		.byte	0
 770 008a 00000000 		.4byte	.LEHB10-.LFB34
 771 008e 00000000 		.4byte	.LEHE10-.LEHB10
 772 0092 00000000 		.4byte	.L28-.LFB34
 773 0096 00       		.byte	0
 774 0097 00000000 		.4byte	.LEHB11-.LFB34
 775 009b 00000000 		.4byte	.LEHE11-.LEHB11
 776 009f 00000000 		.4byte	0
 777 00a3 00       		.byte	0
 778 00a4 00000000 		.4byte	.LEHB12-.LFB34
 779 00a8 00000000 		.4byte	.LEHE12-.LEHB12
 780 00ac 00000000 		.4byte	.L28-.LFB34
 781 00b0 00       		.byte	0
 782 00b1 00000000 		.4byte	.LEHB13-.LFB34
 783 00b5 00000000 		.4byte	.LEHE13-.LEHB13
 784 00b9 00000000 		.4byte	0
 785 00bd 00       		.byte	0
 786              		.text
 788              		.align	2
 789              		.globl	_ZN13ConsoleKernel4getcEv
 791              	_ZN13ConsoleKernel4getcEv:
 792              	.LFB35:
  35:src/ConsoleKernel.cpp **** 
  36:src/ConsoleKernel.cpp **** // Get a character from the input buffer
  37:src/ConsoleKernel.cpp **** char ConsoleKernel::getc(){
 793              		.loc 1 37 27 is_stmt 1
 794              		.cfi_startproc
 795              		.cfi_personality 0x9b,DW.ref.__gxx_personality_v0
 796              		.cfi_lsda 0x1b,.LLSDA35
 797 04d4 130101FE 		addi	sp,sp,-32
 798              		.cfi_def_cfa_offset 32
 799 04d8 233C1100 		sd	ra,24(sp)
 800 04dc 23388100 		sd	s0,16(sp)
GAS LISTING /tmp/ccrAem8Q.s 			page 20


 801 04e0 23349100 		sd	s1,8(sp)
 802 04e4 23302101 		sd	s2,0(sp)
 803              		.cfi_offset 1, -8
 804              		.cfi_offset 8, -16
 805              		.cfi_offset 9, -24
 806              		.cfi_offset 18, -32
 807 04e8 13040102 		addi	s0,sp,32
 808              		.cfi_def_cfa 8, 0
  38:src/ConsoleKernel.cpp ****     return ConsoleKernel::get()->input.get();
 809              		.loc 1 38 5
 810              	.LBB140:
 811              	.LBB141:
  37:src/../h/ConsoleKernel.hpp ****         return instance;
 812              		.loc 3 37 9
  37:src/../h/ConsoleKernel.hpp ****         return instance;
 813              		.loc 3 37 12 is_stmt 0
 814 04ec 97070000 		ld	a5,.LANCHOR0
 814      83B70700 
  37:src/../h/ConsoleKernel.hpp ****         return instance;
 815              		.loc 3 37 9
 816 04f4 63860702 		beqz	a5,.L43
 817              	.L38:
 818              		.loc 3 38 9 is_stmt 1
 819              	.LBE141:
 820              	.LBE140:
 821              		.loc 1 38 43 is_stmt 0
 822 04f8 17050000 		ld	a0,.LANCHOR0
 822      03350500 
 823              	.LEHB14:
 824 0500 97000000 		call	_ZN12BufferKernel3getEv@plt
 824      E7800000 
 825              	.LVL71:
  39:src/ConsoleKernel.cpp **** }
 826              		.loc 1 39 1
 827 0508 83308101 		ld	ra,24(sp)
 828              		.cfi_remember_state
 829              		.cfi_restore 1
 830 050c 03340101 		ld	s0,16(sp)
 831              		.cfi_restore 8
 832              		.cfi_def_cfa 2, 32
 833 0510 83348100 		ld	s1,8(sp)
 834              		.cfi_restore 9
 835 0514 03390100 		ld	s2,0(sp)
 836              		.cfi_restore 18
 837 0518 13010102 		addi	sp,sp,32
 838              		.cfi_def_cfa_offset 0
 839 051c 67800000 		jr	ra
 840              	.L43:
 841              		.cfi_restore_state
 842              	.LBB152:
 843              	.LBB151:
  37:src/../h/ConsoleKernel.hpp ****         return instance;
 844              		.loc 3 37 23 is_stmt 1
  37:src/../h/ConsoleKernel.hpp ****         return instance;
 845              		.loc 3 37 52 is_stmt 0
 846 0520 13050012 		li	a0,288
 847 0524 97000000 		call	_Znwm@plt
GAS LISTING /tmp/ccrAem8Q.s 			page 21


 847      E7800000 
 848              	.LVL72:
 849              	.LEHE14:
 850 052c 93040500 		mv	s1,a0
 851              	.LVL73:
 852              	.LBB142:
 853              	.LBB143:
 854              	.LBB144:
 855              	.LBB145:
 856              	.LBB146:
 857              	.LBB147:
  30:src/../h/../h/BufferKernel.hpp ****         sem_open(&mutexSem, 1);
 858              		.loc 4 30 45
 859 0530 23200500 		sw	zero,0(a0)
 860 0534 23220500 		sw	zero,4(a0)
 861 0538 23240500 		sw	zero,8(a0)
  31:src/../h/../h/BufferKernel.hpp ****         sem_open(&spacePutAv, maxSize);
 862              		.loc 4 31 9 is_stmt 1
  31:src/../h/../h/BufferKernel.hpp ****         sem_open(&spacePutAv, maxSize);
 863              		.loc 4 31 17 is_stmt 0
 864 053c 93051000 		li	a1,1
 865 0540 13050507 		addi	a0,a0,112
 866              	.LEHB15:
 867 0544 97000000 		call	_Z8sem_openPP4_semj@plt
 867      E7800000 
 868              	.LVL74:
  32:src/../h/../h/BufferKernel.hpp ****         sem_open(&charGetAv, 0);
 869              		.loc 4 32 9 is_stmt 1
  32:src/../h/../h/BufferKernel.hpp ****         sem_open(&charGetAv, 0);
 870              		.loc 4 32 17 is_stmt 0
 871 054c 93054006 		li	a1,100
 872 0550 13858407 		addi	a0,s1,120
 873 0554 97000000 		call	_Z8sem_openPP4_semj@plt
 873      E7800000 
 874              	.LVL75:
 875              		.loc 4 33 9 is_stmt 1
 876              		.loc 4 33 17 is_stmt 0
 877 055c 93050000 		li	a1,0
 878 0560 13850408 		addi	a0,s1,128
 879 0564 97000000 		call	_Z8sem_openPP4_semj@plt
 879      E7800000 
 880              	.LVL76:
 881              	.LBE147:
 882              	.LBE146:
 883              	.LBE145:
 884              	.LBB148:
 885              	.LBB149:
 886              	.LBB150:
  30:src/../h/../h/BufferKernel.hpp ****         sem_open(&mutexSem, 1);
 887              		.loc 4 30 45
 888 056c 23A40408 		sw	zero,136(s1)
 889 0570 23A60408 		sw	zero,140(s1)
 890 0574 23A80408 		sw	zero,144(s1)
  31:src/../h/../h/BufferKernel.hpp ****         sem_open(&spacePutAv, maxSize);
 891              		.loc 4 31 9 is_stmt 1
  31:src/../h/../h/BufferKernel.hpp ****         sem_open(&spacePutAv, maxSize);
 892              		.loc 4 31 17 is_stmt 0
GAS LISTING /tmp/ccrAem8Q.s 			page 22


 893 0578 93051000 		li	a1,1
 894 057c 1385840F 		addi	a0,s1,248
 895 0580 97000000 		call	_Z8sem_openPP4_semj@plt
 895      E7800000 
 896              	.LVL77:
  32:src/../h/../h/BufferKernel.hpp ****         sem_open(&charGetAv, 0);
 897              		.loc 4 32 9 is_stmt 1
  32:src/../h/../h/BufferKernel.hpp ****         sem_open(&charGetAv, 0);
 898              		.loc 4 32 17 is_stmt 0
 899 0588 93054006 		li	a1,100
 900 058c 13850410 		addi	a0,s1,256
 901 0590 97000000 		call	_Z8sem_openPP4_semj@plt
 901      E7800000 
 902              	.LVL78:
 903              		.loc 4 33 9 is_stmt 1
 904              		.loc 4 33 17 is_stmt 0
 905 0598 93050000 		li	a1,0
 906 059c 13858410 		addi	a0,s1,264
 907 05a0 97000000 		call	_Z8sem_openPP4_semj@plt
 907      E7800000 
 908              	.LVL79:
 909              	.LBE150:
 910              	.LBE149:
 911              	.LBE148:
  16:src/../h/ConsoleKernel.hpp ****         sem_open(&putSem,0);
 912              		.loc 3 16 9 is_stmt 1
  16:src/../h/ConsoleKernel.hpp ****         sem_open(&putSem,0);
 913              		.loc 3 16 17 is_stmt 0
 914 05a8 93050000 		li	a1,0
 915 05ac 13850411 		addi	a0,s1,272
 916 05b0 97000000 		call	_Z8sem_openPP4_semj@plt
 916      E7800000 
 917              	.LVL80:
  17:src/../h/ConsoleKernel.hpp ****     }
 918              		.loc 3 17 9 is_stmt 1
  17:src/../h/ConsoleKernel.hpp ****     }
 919              		.loc 3 17 17 is_stmt 0
 920 05b8 93050000 		li	a1,0
 921 05bc 13858411 		addi	a0,s1,280
 922 05c0 97000000 		call	_Z8sem_openPP4_semj@plt
 922      E7800000 
 923              	.LVL81:
 924              	.LEHE15:
 925              	.LBE144:
 926              	.LBE143:
 927              	.LBE142:
  37:src/../h/ConsoleKernel.hpp ****         return instance;
 928              		.loc 3 37 32
 929 05c8 97070000 		sd	s1,.LANCHOR0,a5
 929      23B09700 
 930 05d0 6FF09FF2 		j	.L38
 931              	.LVL82:
 932              	.L40:
 933 05d4 13090500 		mv	s2,a0
  37:src/../h/ConsoleKernel.hpp ****         return instance;
 934              		.loc 3 37 52
 935 05d8 13850400 		mv	a0,s1
GAS LISTING /tmp/ccrAem8Q.s 			page 23


 936 05dc 97000000 		call	_ZdlPv@plt
 936      E7800000 
 937              	.LVL83:
 938 05e4 13050900 		mv	a0,s2
 939              	.LEHB16:
 940 05e8 97000000 		call	_Unwind_Resume@plt
 940      E7800000 
 941              	.LVL84:
 942              	.LEHE16:
 943              	.LBE151:
 944              	.LBE152:
 945              		.cfi_endproc
 946              	.LFE35:
 947              		.section	.gcc_except_table
 948              	.LLSDA35:
 949 00be FF       		.byte	0xff
 950 00bf FF       		.byte	0xff
 951 00c0 03       		.byte	0x3
 952 00c1 27       		.byte	0x27
 953 00c2 00000000 		.4byte	.LEHB14-.LFB35
 954 00c6 00000000 		.4byte	.LEHE14-.LEHB14
 955 00ca 00000000 		.4byte	0
 956 00ce 00       		.byte	0
 957 00cf 00000000 		.4byte	.LEHB15-.LFB35
 958 00d3 00000000 		.4byte	.LEHE15-.LEHB15
 959 00d7 00000000 		.4byte	.L40-.LFB35
 960 00db 00       		.byte	0
 961 00dc 00000000 		.4byte	.LEHB16-.LFB35
 962 00e0 00000000 		.4byte	.LEHE16-.LEHB16
 963 00e4 00000000 		.4byte	0
 964 00e8 00       		.byte	0
 965              		.text
 967              		.align	2
 968              		.globl	_ZN13ConsoleKernel4putcEc
 970              	_ZN13ConsoleKernel4putcEc:
 971              	.LFB36:
  40:src/ConsoleKernel.cpp **** 
  41:src/ConsoleKernel.cpp **** // Put a character in the output buffer
  42:src/ConsoleKernel.cpp **** void ConsoleKernel::putc(char putchar){
 972              		.loc 1 42 39 is_stmt 1
 973              		.cfi_startproc
 974              		.cfi_personality 0x9b,DW.ref.__gxx_personality_v0
 975              		.cfi_lsda 0x1b,.LLSDA36
 976              	.LVL85:
 977 05f0 130101FD 		addi	sp,sp,-48
 978              		.cfi_def_cfa_offset 48
 979 05f4 23341102 		sd	ra,40(sp)
 980 05f8 23308102 		sd	s0,32(sp)
 981 05fc 233C9100 		sd	s1,24(sp)
 982 0600 23382101 		sd	s2,16(sp)
 983 0604 23343101 		sd	s3,8(sp)
 984              		.cfi_offset 1, -8
 985              		.cfi_offset 8, -16
 986              		.cfi_offset 9, -24
 987              		.cfi_offset 18, -32
 988              		.cfi_offset 19, -40
 989 0608 13040103 		addi	s0,sp,48
GAS LISTING /tmp/ccrAem8Q.s 			page 24


 990              		.cfi_def_cfa 8, 0
 991 060c 93040500 		mv	s1,a0
  43:src/ConsoleKernel.cpp ****     ConsoleKernel::get()->output.put(putchar);
 992              		.loc 1 43 5
 993              	.LBB164:
 994              	.LBB165:
  37:src/../h/ConsoleKernel.hpp ****         return instance;
 995              		.loc 3 37 9
  37:src/../h/ConsoleKernel.hpp ****         return instance;
 996              		.loc 3 37 12 is_stmt 0
 997 0610 97070000 		ld	a5,.LANCHOR0
 997      83B70700 
  37:src/../h/ConsoleKernel.hpp ****         return instance;
 998              		.loc 3 37 9
 999 0618 638C0702 		beqz	a5,.L50
 1000              	.LVL86:
 1001              	.L45:
 1002              		.loc 3 38 9 is_stmt 1
 1003              	.LBE165:
 1004              	.LBE164:
 1005              		.loc 1 43 37 is_stmt 0
 1006 061c 93850400 		mv	a1,s1
 1007 0620 17050000 		ld	a0,.LANCHOR0
 1007      03350500 
 1008 0628 13058508 		addi	a0,a0,136
 1009              	.LEHB17:
 1010 062c 97000000 		call	_ZN12BufferKernel3putEc@plt
 1010      E7800000 
 1011              	.LVL87:
  44:src/ConsoleKernel.cpp **** }...
 1012              		.loc 1 44 1
 1013 0634 83308102 		ld	ra,40(sp)
 1014              		.cfi_remember_state
 1015              		.cfi_restore 1
 1016 0638 03340102 		ld	s0,32(sp)
 1017              		.cfi_restore 8
 1018              		.cfi_def_cfa 2, 48
 1019 063c 83348101 		ld	s1,24(sp)
 1020              		.cfi_restore 9
 1021 0640 03390101 		ld	s2,16(sp)
 1022              		.cfi_restore 18
 1023 0644 83398100 		ld	s3,8(sp)
 1024              		.cfi_restore 19
 1025 0648 13010103 		addi	sp,sp,48
 1026              		.cfi_def_cfa_offset 0
 1027 064c 67800000 		jr	ra
 1028              	.LVL88:
 1029              	.L50:
 1030              		.cfi_restore_state
 1031              	.LBB176:
 1032              	.LBB175:
  37:src/../h/ConsoleKernel.hpp ****         return instance;
 1033              		.loc 3 37 23 is_stmt 1
  37:src/../h/ConsoleKernel.hpp ****         return instance;
 1034              		.loc 3 37 52 is_stmt 0
 1035 0650 13050012 		li	a0,288
 1036              	.LVL89:
GAS LISTING /tmp/ccrAem8Q.s 			page 25


 1037 0654 97000000 		call	_Znwm@plt
 1037      E7800000 
 1038              	.LVL90:
 1039              	.LEHE17:
 1040 065c 13090500 		mv	s2,a0
 1041              	.LVL91:
 1042              	.LBB166:
 1043              	.LBB167:
 1044              	.LBB168:
 1045              	.LBB169:
 1046              	.LBB170:
 1047              	.LBB171:
  30:src/../h/../h/BufferKernel.hpp ****         sem_open(&mutexSem, 1);
 1048              		.loc 4 30 45
 1049 0660 23200500 		sw	zero,0(a0)
 1050 0664 23220500 		sw	zero,4(a0)
 1051 0668 23240500 		sw	zero,8(a0)
  31:src/../h/../h/BufferKernel.hpp ****         sem_open(&spacePutAv, maxSize);
 1052              		.loc 4 31 9 is_stmt 1
  31:src/../h/../h/BufferKernel.hpp ****         sem_open(&spacePutAv, maxSize);
 1053              		.loc 4 31 17 is_stmt 0
 1054 066c 93051000 		li	a1,1
 1055 0670 13050507 		addi	a0,a0,112
 1056              	.LVL92:
 1057              	.LEHB18:
 1058 0674 97000000 		call	_Z8sem_openPP4_semj@plt
 1058      E7800000 
 1059              	.LVL93:
  32:src/../h/../h/BufferKernel.hpp ****         sem_open(&charGetAv, 0);
 1060              		.loc 4 32 9 is_stmt 1
  32:src/../h/../h/BufferKernel.hpp ****         sem_open(&charGetAv, 0);
 1061              		.loc 4 32 17 is_stmt 0
 1062 067c 93054006 		li	a1,100
 1063 0680 13058907 		addi	a0,s2,120
 1064 0684 97000000 		call	_Z8sem_openPP4_semj@plt
 1064      E7800000 
 1065              	.LVL94:
 1066              		.loc 4 33 9 is_stmt 1
 1067              		.loc 4 33 17 is_stmt 0
 1068 068c 93050000 		li	a1,0
 1069 0690 13050908 		addi	a0,s2,128
 1070 0694 97000000 		call	_Z8sem_openPP4_semj@plt
 1070      E7800000 
 1071              	.LVL95:
 1072              	.LBE171:
 1073              	.LBE170:
 1074              	.LBE169:
 1075              	.LBB172:
 1076              	.LBB173:
 1077              	.LBB174:
  30:src/../h/../h/BufferKernel.hpp ****         sem_open(&mutexSem, 1);
 1078              		.loc 4 30 45
 1079 069c 23240908 		sw	zero,136(s2)
 1080 06a0 23260908 		sw	zero,140(s2)
 1081 06a4 23280908 		sw	zero,144(s2)
  31:src/../h/../h/BufferKernel.hpp ****         sem_open(&spacePutAv, maxSize);
 1082              		.loc 4 31 9 is_stmt 1
GAS LISTING /tmp/ccrAem8Q.s 			page 26


  31:src/../h/../h/BufferKernel.hpp ****         sem_open(&spacePutAv, maxSize);
 1083              		.loc 4 31 17 is_stmt 0
 1084 06a8 93051000 		li	a1,1
 1085 06ac 1305890F 		addi	a0,s2,248
 1086 06b0 97000000 		call	_Z8sem_openPP4_semj@plt
 1086      E7800000 
 1087              	.LVL96:
  32:src/../h/../h/BufferKernel.hpp ****         sem_open(&charGetAv, 0);
 1088              		.loc 4 32 9 is_stmt 1
  32:src/../h/../h/BufferKernel.hpp ****         sem_open(&charGetAv, 0);
 1089              		.loc 4 32 17 is_stmt 0
 1090 06b8 93054006 		li	a1,100
 1091 06bc 13050910 		addi	a0,s2,256
 1092 06c0 97000000 		call	_Z8sem_openPP4_semj@plt
 1092      E7800000 
 1093              	.LVL97:
 1094              		.loc 4 33 9 is_stmt 1
 1095              		.loc 4 33 17 is_stmt 0
 1096 06c8 93050000 		li	a1,0
 1097 06cc 13058910 		addi	a0,s2,264
 1098 06d0 97000000 		call	_Z8sem_openPP4_semj@plt
 1098      E7800000 
 1099              	.LVL98:
 1100              	.LBE174:
 1101              	.LBE173:
 1102              	.LBE172:
  16:src/../h/ConsoleKernel.hpp ****         sem_open(&putSem,0);
 1103              		.loc 3 16 9 is_stmt 1
  16:src/../h/ConsoleKernel.hpp ****         sem_open(&putSem,0);
 1104              		.loc 3 16 17 is_stmt 0
 1105 06d8 93050000 		li	a1,0
 1106 06dc 13050911 		addi	a0,s2,272
 1107 06e0 97000000 		call	_Z8sem_openPP4_semj@plt
 1107      E7800000 
 1108              	.LVL99:
  17:src/../h/ConsoleKernel.hpp ****     }
 1109              		.loc 3 17 9 is_stmt 1
  17:src/../h/ConsoleKernel.hpp ****     }
 1110              		.loc 3 17 17 is_stmt 0
 1111 06e8 93050000 		li	a1,0
 1112 06ec 13058911 		addi	a0,s2,280
 1113 06f0 97000000 		call	_Z8sem_openPP4_semj@plt
 1113      E7800000 
 1114              	.LVL100:
 1115              	.LEHE18:
 1116              	.LBE168:
 1117              	.LBE167:
 1118              	.LBE166:
  37:src/../h/ConsoleKernel.hpp ****         return instance;
 1119              		.loc 3 37 32
 1120 06f8 97070000 		sd	s2,.LANCHOR0,a5
 1120      23B02701 
 1121 0700 6FF0DFF1 		j	.L45
 1122              	.LVL101:
 1123              	.L47:
 1124 0704 93040500 		mv	s1,a0
  37:src/../h/ConsoleKernel.hpp ****         return instance;
GAS LISTING /tmp/ccrAem8Q.s 			page 27


 1125              		.loc 3 37 52
 1126 0708 13050900 		mv	a0,s2
 1127 070c 97000000 		call	_ZdlPv@plt
 1127      E7800000 
 1128              	.LVL102:
 1129 0714 13850400 		mv	a0,s1
 1130              	.LEHB19:
 1131 0718 97000000 		call	_Unwind_Resume@plt
 1131      E7800000 
 1132              	.LVL103:
 1133              	.LEHE19:
 1134              	.LBE175:
 1135              	.LBE176:
 1136              		.cfi_endproc
 1137              	.LFE36:
 1138              		.section	.gcc_except_table
 1139              	.LLSDA36:
 1140 00e9 FF       		.byte	0xff
 1141 00ea FF       		.byte	0xff
 1142 00eb 03       		.byte	0x3
 1143 00ec 27       		.byte	0x27
 1144 00ed 00000000 		.4byte	.LEHB17-.LFB36
 1145 00f1 00000000 		.4byte	.LEHE17-.LEHB17
 1146 00f5 00000000 		.4byte	0
 1147 00f9 00       		.byte	0
 1148 00fa 00000000 		.4byte	.LEHB18-.LFB36
 1149 00fe 00000000 		.4byte	.LEHE18-.LEHB18
 1150 0102 00000000 		.4byte	.L47-.LFB36
 1151 0106 00       		.byte	0
 1152 0107 00000000 		.4byte	.LEHB19-.LFB36
 1153 010b 00000000 		.4byte	.LEHE19-.LEHB19
 1154 010f 00000000 		.4byte	0
 1155 0113 00       		.byte	0
 1156              		.text
 1158              		.globl	_ZN13ConsoleKernel8instanceE
 1159              		.bss
 1160              		.align	3
 1161              		.set	.LANCHOR0,. + 0
 1164              	_ZN13ConsoleKernel8instanceE:
 1165 0000 00000000 		.zero	8
 1165      00000000 
 1166              		.text
 1167              	.Letext0:
 1168              		.file 5 "src/../h/../lib/hw.h"
 1169              		.file 6 "src/../h/../h/syscall_c.hpp"
 1170              		.file 7 "src/../h/list.hpp"
 5337              		.align	3
 5340              	DW.ref.__gxx_personality_v0:
 5341 0000 00000000 		.dword	__gxx_personality_v0
 5341      00000000 
 5342              		.ident	"GCC: (Ubuntu 9.4.0-1ubuntu1~20.04) 9.4.0"
 5343              		.section	.note.GNU-stack,"",@progbits
GAS LISTING /tmp/ccrAem8Q.s 			page 28


DEFINED SYMBOLS
                            *ABS*:0000000000000000 ConsoleKernel.cpp
     /tmp/ccrAem8Q.s:9      .text:0000000000000000 _ZN13ConsoleKernel13getCharKernelEPv
     /tmp/ccrAem8Q.s:13     .text:0000000000000000 .L0 
     /tmp/ccrAem8Q.s:5340   .data.rel.local.DW.ref.__gxx_personality_v0:0000000000000000 DW.ref.__gxx_personality_v0
     /tmp/ccrAem8Q.s:17     .text:0000000000000000 .L0 
     /tmp/ccrAem8Q.s:18     .text:0000000000000000 .L0 
     /tmp/ccrAem8Q.s:19     .text:0000000000000000 .L0 
     /tmp/ccrAem8Q.s:20     .text:0000000000000000 .L0 
     /tmp/ccrAem8Q.s:27     .text:000000000000000c .L0 
     /tmp/ccrAem8Q.s:28     .text:000000000000000c .L0 
     /tmp/ccrAem8Q.s:33     .text:0000000000000010 .L0 
     /tmp/ccrAem8Q.s:35     .text:0000000000000014 .L0 
     /tmp/ccrAem8Q.s:36     .text:0000000000000018 .L0 
     /tmp/ccrAem8Q.s:41     .text:0000000000000028 .L0 
     /tmp/ccrAem8Q.s:42     .text:0000000000000028 .L0 
     /tmp/ccrAem8Q.s:43     .text:0000000000000028 .L0 
     /tmp/ccrAem8Q.s:44     .text:0000000000000028 .L0 
     /tmp/ccrAem8Q.s:46     .text:000000000000002c .L0 
     /tmp/ccrAem8Q.s:51     .text:0000000000000030 .L0 
     /tmp/ccrAem8Q.s:52     .text:0000000000000030 .L0 
     /tmp/ccrAem8Q.s:53     .text:0000000000000030 .L0 
     /tmp/ccrAem8Q.s:59     .text:000000000000003c .L0 
     /tmp/ccrAem8Q.s:60     .text:000000000000003c .L0 
     /tmp/ccrAem8Q.s:65     .text:0000000000000040 .L0 
     /tmp/ccrAem8Q.s:71     .text:0000000000000044 .L0 
     /tmp/ccrAem8Q.s:72     .text:0000000000000044 .L0 
     /tmp/ccrAem8Q.s:73     .text:0000000000000044 .L0 
     /tmp/ccrAem8Q.s:75     .text:000000000000004c .L0 
     /tmp/ccrAem8Q.s:80     .text:0000000000000050 .L0 
     /tmp/ccrAem8Q.s:81     .text:0000000000000050 .L0 
     /tmp/ccrAem8Q.s:91     .text:0000000000000068 .L0 
     /tmp/ccrAem8Q.s:92     .text:0000000000000068 .L0 
     /tmp/ccrAem8Q.s:106    .text:0000000000000078 .L0 
     /tmp/ccrAem8Q.s:110    .text:0000000000000084 .L0 
     /tmp/ccrAem8Q.s:111    .text:0000000000000084 .L0 
     /tmp/ccrAem8Q.s:117    .text:0000000000000094 .L0 
     /tmp/ccrAem8Q.s:118    .text:0000000000000094 .L0 
     /tmp/ccrAem8Q.s:123    .text:00000000000000a4 .L0 
     /tmp/ccrAem8Q.s:124    .text:00000000000000a4 .L0 
     /tmp/ccrAem8Q.s:135    .text:00000000000000b4 .L0 
     /tmp/ccrAem8Q.s:139    .text:00000000000000c0 .L0 
     /tmp/ccrAem8Q.s:140    .text:00000000000000c0 .L0 
     /tmp/ccrAem8Q.s:145    .text:00000000000000d0 .L0 
     /tmp/ccrAem8Q.s:146    .text:00000000000000d0 .L0 
     /tmp/ccrAem8Q.s:151    .text:00000000000000e0 .L0 
     /tmp/ccrAem8Q.s:152    .text:00000000000000e0 .L0 
     /tmp/ccrAem8Q.s:160    .text:00000000000000f0 .L0 
     /tmp/ccrAem8Q.s:161    .text:00000000000000f0 .L0 
     /tmp/ccrAem8Q.s:166    .text:0000000000000100 .L0 
     /tmp/ccrAem8Q.s:167    .text:0000000000000100 .L0 
     /tmp/ccrAem8Q.s:176    .text:0000000000000110 .L0 
     /tmp/ccrAem8Q.s:182    .text:0000000000000120 .L0 
     /tmp/ccrAem8Q.s:202    .text:0000000000000138 .L0 
     /tmp/ccrAem8Q.s:203    .text:0000000000000138 .L0 
     /tmp/ccrAem8Q.s:209    .text:0000000000000148 .L0 
     /tmp/ccrAem8Q.s:210    .text:0000000000000148 .L0 
GAS LISTING /tmp/ccrAem8Q.s 			page 29


     /tmp/ccrAem8Q.s:221    .text:0000000000000158 .L0 
     /tmp/ccrAem8Q.s:225    .text:0000000000000164 .L0 
     /tmp/ccrAem8Q.s:226    .text:0000000000000164 .L0 
     /tmp/ccrAem8Q.s:231    .text:0000000000000174 .L0 
     /tmp/ccrAem8Q.s:232    .text:0000000000000174 .L0 
     /tmp/ccrAem8Q.s:237    .text:0000000000000184 .L0 
     /tmp/ccrAem8Q.s:238    .text:0000000000000184 .L0 
     /tmp/ccrAem8Q.s:246    .text:0000000000000194 .L0 
     /tmp/ccrAem8Q.s:247    .text:0000000000000194 .L0 
     /tmp/ccrAem8Q.s:252    .text:00000000000001a4 .L0 
     /tmp/ccrAem8Q.s:253    .text:00000000000001a4 .L0 
     /tmp/ccrAem8Q.s:262    .text:00000000000001b4 .L0 
     /tmp/ccrAem8Q.s:267    .text:00000000000001bc .L0 
     /tmp/ccrAem8Q.s:268    .text:00000000000001bc .L0 
     /tmp/ccrAem8Q.s:277    .text:00000000000001dc .L0 
     /tmp/ccrAem8Q.s:278    .text:00000000000001dc .L0 
     /tmp/ccrAem8Q.s:279    .text:00000000000001dc .L0 
     /tmp/ccrAem8Q.s:283    .text:00000000000001ec .L0 
     /tmp/ccrAem8Q.s:288    .text:00000000000001f4 .L0 
     /tmp/ccrAem8Q.s:289    .text:00000000000001f4 .L0 
     /tmp/ccrAem8Q.s:290    .text:00000000000001f4 .L0 
     /tmp/ccrAem8Q.s:292    .text:00000000000001fc .L0 
     /tmp/ccrAem8Q.s:294    .text:0000000000000200 .L0 
     /tmp/ccrAem8Q.s:295    .text:0000000000000200 .L0 
     /tmp/ccrAem8Q.s:308    .text:0000000000000210 .L0 
     /tmp/ccrAem8Q.s:312    .text:000000000000021c .L0 
     /tmp/ccrAem8Q.s:313    .text:000000000000021c .L0 
     /tmp/ccrAem8Q.s:330    .text:0000000000000234 .L0 
     /tmp/ccrAem8Q.s:342    .text:000000000000024c .L0 
     /tmp/ccrAem8Q.s:343    .text:0000000000000250 .L0 
     /tmp/ccrAem8Q.s:345    .text:0000000000000254 .L0 
     /tmp/ccrAem8Q.s:346    .text:0000000000000254 .L0 
     /tmp/ccrAem8Q.s:348    .text:0000000000000258 .L0 
     /tmp/ccrAem8Q.s:350    .text:000000000000025c .L0 
     /tmp/ccrAem8Q.s:352    .text:0000000000000260 .L0 
     /tmp/ccrAem8Q.s:357    .text:0000000000000268 .L0 
     /tmp/ccrAem8Q.s:399    .text:0000000000000268 _ZN13ConsoleKernel13putCharKernelEPv
     /tmp/ccrAem8Q.s:402    .text:0000000000000268 .L0 
     /tmp/ccrAem8Q.s:406    .text:0000000000000268 .L0 
     /tmp/ccrAem8Q.s:407    .text:0000000000000268 .L0 
     /tmp/ccrAem8Q.s:408    .text:0000000000000268 .L0 
     /tmp/ccrAem8Q.s:409    .text:0000000000000268 .L0 
     /tmp/ccrAem8Q.s:415    .text:0000000000000274 .L0 
     /tmp/ccrAem8Q.s:416    .text:0000000000000274 .L0 
     /tmp/ccrAem8Q.s:421    .text:0000000000000278 .L0 
     /tmp/ccrAem8Q.s:423    .text:000000000000027c .L0 
     /tmp/ccrAem8Q.s:424    .text:0000000000000280 .L0 
     /tmp/ccrAem8Q.s:429    .text:0000000000000290 .L0 
     /tmp/ccrAem8Q.s:430    .text:0000000000000290 .L0 
     /tmp/ccrAem8Q.s:431    .text:0000000000000290 .L0 
     /tmp/ccrAem8Q.s:432    .text:0000000000000290 .L0 
     /tmp/ccrAem8Q.s:434    .text:0000000000000294 .L0 
     /tmp/ccrAem8Q.s:439    .text:0000000000000298 .L0 
     /tmp/ccrAem8Q.s:440    .text:0000000000000298 .L0 
     /tmp/ccrAem8Q.s:441    .text:0000000000000298 .L0 
     /tmp/ccrAem8Q.s:447    .text:00000000000002a4 .L0 
     /tmp/ccrAem8Q.s:448    .text:00000000000002a4 .L0 
GAS LISTING /tmp/ccrAem8Q.s 			page 30


     /tmp/ccrAem8Q.s:453    .text:00000000000002a8 .L0 
     /tmp/ccrAem8Q.s:459    .text:00000000000002ac .L0 
     /tmp/ccrAem8Q.s:460    .text:00000000000002ac .L0 
     /tmp/ccrAem8Q.s:461    .text:00000000000002ac .L0 
     /tmp/ccrAem8Q.s:463    .text:00000000000002b4 .L0 
     /tmp/ccrAem8Q.s:468    .text:00000000000002b8 .L0 
     /tmp/ccrAem8Q.s:469    .text:00000000000002b8 .L0 
     /tmp/ccrAem8Q.s:479    .text:00000000000002d0 .L0 
     /tmp/ccrAem8Q.s:480    .text:00000000000002d0 .L0 
     /tmp/ccrAem8Q.s:493    .text:00000000000002e0 .L0 
     /tmp/ccrAem8Q.s:497    .text:00000000000002ec .L0 
     /tmp/ccrAem8Q.s:498    .text:00000000000002ec .L0 
     /tmp/ccrAem8Q.s:504    .text:00000000000002fc .L0 
     /tmp/ccrAem8Q.s:505    .text:00000000000002fc .L0 
     /tmp/ccrAem8Q.s:510    .text:000000000000030c .L0 
     /tmp/ccrAem8Q.s:511    .text:000000000000030c .L0 
     /tmp/ccrAem8Q.s:522    .text:000000000000031c .L0 
     /tmp/ccrAem8Q.s:526    .text:0000000000000328 .L0 
     /tmp/ccrAem8Q.s:527    .text:0000000000000328 .L0 
     /tmp/ccrAem8Q.s:532    .text:0000000000000338 .L0 
     /tmp/ccrAem8Q.s:533    .text:0000000000000338 .L0 
     /tmp/ccrAem8Q.s:538    .text:0000000000000348 .L0 
     /tmp/ccrAem8Q.s:539    .text:0000000000000348 .L0 
     /tmp/ccrAem8Q.s:547    .text:0000000000000358 .L0 
     /tmp/ccrAem8Q.s:548    .text:0000000000000358 .L0 
     /tmp/ccrAem8Q.s:553    .text:0000000000000368 .L0 
     /tmp/ccrAem8Q.s:554    .text:0000000000000368 .L0 
     /tmp/ccrAem8Q.s:563    .text:0000000000000378 .L0 
     /tmp/ccrAem8Q.s:569    .text:0000000000000388 .L0 
     /tmp/ccrAem8Q.s:589    .text:00000000000003a0 .L0 
     /tmp/ccrAem8Q.s:590    .text:00000000000003a0 .L0 
     /tmp/ccrAem8Q.s:596    .text:00000000000003b0 .L0 
     /tmp/ccrAem8Q.s:597    .text:00000000000003b0 .L0 
     /tmp/ccrAem8Q.s:608    .text:00000000000003c0 .L0 
     /tmp/ccrAem8Q.s:612    .text:00000000000003cc .L0 
     /tmp/ccrAem8Q.s:613    .text:00000000000003cc .L0 
     /tmp/ccrAem8Q.s:618    .text:00000000000003dc .L0 
     /tmp/ccrAem8Q.s:619    .text:00000000000003dc .L0 
     /tmp/ccrAem8Q.s:624    .text:00000000000003ec .L0 
     /tmp/ccrAem8Q.s:625    .text:00000000000003ec .L0 
     /tmp/ccrAem8Q.s:633    .text:00000000000003fc .L0 
     /tmp/ccrAem8Q.s:634    .text:00000000000003fc .L0 
     /tmp/ccrAem8Q.s:639    .text:000000000000040c .L0 
     /tmp/ccrAem8Q.s:640    .text:000000000000040c .L0 
     /tmp/ccrAem8Q.s:649    .text:000000000000041c .L0 
     /tmp/ccrAem8Q.s:654    .text:0000000000000424 .L0 
     /tmp/ccrAem8Q.s:655    .text:0000000000000424 .L0 
     /tmp/ccrAem8Q.s:661    .text:0000000000000438 .L0 
     /tmp/ccrAem8Q.s:664    .text:0000000000000444 .L0 
     /tmp/ccrAem8Q.s:668    .text:0000000000000448 .L0 
     /tmp/ccrAem8Q.s:669    .text:0000000000000448 .L0 
     /tmp/ccrAem8Q.s:670    .text:0000000000000448 .L0 
     /tmp/ccrAem8Q.s:671    .text:0000000000000448 .L0 
     /tmp/ccrAem8Q.s:675    .text:0000000000000458 .L0 
     /tmp/ccrAem8Q.s:680    .text:0000000000000460 .L0 
     /tmp/ccrAem8Q.s:681    .text:0000000000000460 .L0 
     /tmp/ccrAem8Q.s:682    .text:0000000000000460 .L0 
GAS LISTING /tmp/ccrAem8Q.s 			page 31


     /tmp/ccrAem8Q.s:684    .text:0000000000000468 .L0 
     /tmp/ccrAem8Q.s:686    .text:000000000000046c .L0 
     /tmp/ccrAem8Q.s:687    .text:000000000000046c .L0 
     /tmp/ccrAem8Q.s:700    .text:000000000000047c .L0 
     /tmp/ccrAem8Q.s:704    .text:0000000000000488 .L0 
     /tmp/ccrAem8Q.s:705    .text:0000000000000488 .L0 
     /tmp/ccrAem8Q.s:722    .text:00000000000004a0 .L0 
     /tmp/ccrAem8Q.s:735    .text:00000000000004b8 .L0 
     /tmp/ccrAem8Q.s:736    .text:00000000000004bc .L0 
     /tmp/ccrAem8Q.s:738    .text:00000000000004c0 .L0 
     /tmp/ccrAem8Q.s:739    .text:00000000000004c0 .L0 
     /tmp/ccrAem8Q.s:741    .text:00000000000004c4 .L0 
     /tmp/ccrAem8Q.s:743    .text:00000000000004c8 .L0 
     /tmp/ccrAem8Q.s:745    .text:00000000000004cc .L0 
     /tmp/ccrAem8Q.s:750    .text:00000000000004d4 .L0 
     /tmp/ccrAem8Q.s:791    .text:00000000000004d4 _ZN13ConsoleKernel4getcEv
     /tmp/ccrAem8Q.s:794    .text:00000000000004d4 .L0 
     /tmp/ccrAem8Q.s:797    .text:00000000000004d4 .L0 
     /tmp/ccrAem8Q.s:798    .text:00000000000004d8 .L0 
     /tmp/ccrAem8Q.s:803    .text:00000000000004e8 .L0 
     /tmp/ccrAem8Q.s:804    .text:00000000000004e8 .L0 
     /tmp/ccrAem8Q.s:805    .text:00000000000004e8 .L0 
     /tmp/ccrAem8Q.s:806    .text:00000000000004e8 .L0 
     /tmp/ccrAem8Q.s:808    .text:00000000000004ec .L0 
     /tmp/ccrAem8Q.s:812    .text:00000000000004ec .L0 
     /tmp/ccrAem8Q.s:813    .text:00000000000004ec .L0 
     /tmp/ccrAem8Q.s:814    .text:00000000000004ec .L0 
     /tmp/ccrAem8Q.s:816    .text:00000000000004f4 .L0 
     /tmp/ccrAem8Q.s:821    .text:00000000000004f8 .L0 
     /tmp/ccrAem8Q.s:822    .text:00000000000004f8 .L0 
     /tmp/ccrAem8Q.s:827    .text:0000000000000508 .L0 
     /tmp/ccrAem8Q.s:828    .text:000000000000050c .L0 
     /tmp/ccrAem8Q.s:829    .text:000000000000050c .L0 
     /tmp/ccrAem8Q.s:831    .text:0000000000000510 .L0 
     /tmp/ccrAem8Q.s:832    .text:0000000000000510 .L0 
     /tmp/ccrAem8Q.s:834    .text:0000000000000514 .L0 
     /tmp/ccrAem8Q.s:836    .text:0000000000000518 .L0 
     /tmp/ccrAem8Q.s:838    .text:000000000000051c .L0 
     /tmp/ccrAem8Q.s:841    .text:0000000000000520 .L0 
     /tmp/ccrAem8Q.s:845    .text:0000000000000520 .L0 
     /tmp/ccrAem8Q.s:846    .text:0000000000000520 .L0 
     /tmp/ccrAem8Q.s:859    .text:0000000000000530 .L0 
     /tmp/ccrAem8Q.s:863    .text:000000000000053c .L0 
     /tmp/ccrAem8Q.s:864    .text:000000000000053c .L0 
     /tmp/ccrAem8Q.s:870    .text:000000000000054c .L0 
     /tmp/ccrAem8Q.s:871    .text:000000000000054c .L0 
     /tmp/ccrAem8Q.s:876    .text:000000000000055c .L0 
     /tmp/ccrAem8Q.s:877    .text:000000000000055c .L0 
     /tmp/ccrAem8Q.s:888    .text:000000000000056c .L0 
     /tmp/ccrAem8Q.s:892    .text:0000000000000578 .L0 
     /tmp/ccrAem8Q.s:893    .text:0000000000000578 .L0 
     /tmp/ccrAem8Q.s:898    .text:0000000000000588 .L0 
     /tmp/ccrAem8Q.s:899    .text:0000000000000588 .L0 
     /tmp/ccrAem8Q.s:904    .text:0000000000000598 .L0 
     /tmp/ccrAem8Q.s:905    .text:0000000000000598 .L0 
     /tmp/ccrAem8Q.s:913    .text:00000000000005a8 .L0 
     /tmp/ccrAem8Q.s:914    .text:00000000000005a8 .L0 
GAS LISTING /tmp/ccrAem8Q.s 			page 32


     /tmp/ccrAem8Q.s:919    .text:00000000000005b8 .L0 
     /tmp/ccrAem8Q.s:920    .text:00000000000005b8 .L0 
     /tmp/ccrAem8Q.s:929    .text:00000000000005c8 .L0 
     /tmp/ccrAem8Q.s:935    .text:00000000000005d8 .L0 
     /tmp/ccrAem8Q.s:945    .text:00000000000005f0 .L0 
     /tmp/ccrAem8Q.s:970    .text:00000000000005f0 _ZN13ConsoleKernel4putcEc
     /tmp/ccrAem8Q.s:973    .text:00000000000005f0 .L0 
     /tmp/ccrAem8Q.s:977    .text:00000000000005f0 .L0 
     /tmp/ccrAem8Q.s:978    .text:00000000000005f4 .L0 
     /tmp/ccrAem8Q.s:984    .text:0000000000000608 .L0 
     /tmp/ccrAem8Q.s:985    .text:0000000000000608 .L0 
     /tmp/ccrAem8Q.s:986    .text:0000000000000608 .L0 
     /tmp/ccrAem8Q.s:987    .text:0000000000000608 .L0 
     /tmp/ccrAem8Q.s:988    .text:0000000000000608 .L0 
     /tmp/ccrAem8Q.s:990    .text:000000000000060c .L0 
     /tmp/ccrAem8Q.s:995    .text:0000000000000610 .L0 
     /tmp/ccrAem8Q.s:996    .text:0000000000000610 .L0 
     /tmp/ccrAem8Q.s:997    .text:0000000000000610 .L0 
     /tmp/ccrAem8Q.s:999    .text:0000000000000618 .L0 
     /tmp/ccrAem8Q.s:1005   .text:000000000000061c .L0 
     /tmp/ccrAem8Q.s:1006   .text:000000000000061c .L0 
     /tmp/ccrAem8Q.s:1013   .text:0000000000000634 .L0 
     /tmp/ccrAem8Q.s:1014   .text:0000000000000638 .L0 
     /tmp/ccrAem8Q.s:1015   .text:0000000000000638 .L0 
     /tmp/ccrAem8Q.s:1017   .text:000000000000063c .L0 
     /tmp/ccrAem8Q.s:1018   .text:000000000000063c .L0 
     /tmp/ccrAem8Q.s:1020   .text:0000000000000640 .L0 
     /tmp/ccrAem8Q.s:1022   .text:0000000000000644 .L0 
     /tmp/ccrAem8Q.s:1024   .text:0000000000000648 .L0 
     /tmp/ccrAem8Q.s:1026   .text:000000000000064c .L0 
     /tmp/ccrAem8Q.s:1030   .text:0000000000000650 .L0 
     /tmp/ccrAem8Q.s:1034   .text:0000000000000650 .L0 
     /tmp/ccrAem8Q.s:1035   .text:0000000000000650 .L0 
     /tmp/ccrAem8Q.s:1049   .text:0000000000000660 .L0 
     /tmp/ccrAem8Q.s:1053   .text:000000000000066c .L0 
     /tmp/ccrAem8Q.s:1054   .text:000000000000066c .L0 
     /tmp/ccrAem8Q.s:1061   .text:000000000000067c .L0 
     /tmp/ccrAem8Q.s:1062   .text:000000000000067c .L0 
     /tmp/ccrAem8Q.s:1067   .text:000000000000068c .L0 
     /tmp/ccrAem8Q.s:1068   .text:000000000000068c .L0 
     /tmp/ccrAem8Q.s:1079   .text:000000000000069c .L0 
     /tmp/ccrAem8Q.s:1083   .text:00000000000006a8 .L0 
     /tmp/ccrAem8Q.s:1084   .text:00000000000006a8 .L0 
     /tmp/ccrAem8Q.s:1089   .text:00000000000006b8 .L0 
     /tmp/ccrAem8Q.s:1090   .text:00000000000006b8 .L0 
     /tmp/ccrAem8Q.s:1095   .text:00000000000006c8 .L0 
     /tmp/ccrAem8Q.s:1096   .text:00000000000006c8 .L0 
     /tmp/ccrAem8Q.s:1104   .text:00000000000006d8 .L0 
     /tmp/ccrAem8Q.s:1105   .text:00000000000006d8 .L0 
     /tmp/ccrAem8Q.s:1110   .text:00000000000006e8 .L0 
     /tmp/ccrAem8Q.s:1111   .text:00000000000006e8 .L0 
     /tmp/ccrAem8Q.s:1120   .text:00000000000006f8 .L0 
     /tmp/ccrAem8Q.s:1126   .text:0000000000000708 .L0 
     /tmp/ccrAem8Q.s:1136   .text:0000000000000720 .L0 
     /tmp/ccrAem8Q.s:1164   .bss:0000000000000000 _ZN13ConsoleKernel8instanceE
     /tmp/ccrAem8Q.s:1161   .bss:0000000000000000 .LANCHOR0
     /tmp/ccrAem8Q.s:1171   .text:0000000000000720 .L0 
GAS LISTING /tmp/ccrAem8Q.s 			page 33


     /tmp/ccrAem8Q.s:20     .text:0000000000000000 .L0 
     /tmp/ccrAem8Q.s:53     .text:0000000000000030 .L0 
     /tmp/ccrAem8Q.s:73     .text:0000000000000044 .L0 
     /tmp/ccrAem8Q.s:81     .text:0000000000000050 .L0 
     /tmp/ccrAem8Q.s:176    .text:0000000000000110 .L0 
     /tmp/ccrAem8Q.s:262    .text:00000000000001b4 .L0 
     /tmp/ccrAem8Q.s:268    .text:00000000000001bc .L0 
     /tmp/ccrAem8Q.s:271    .text:00000000000001cc .L0 
     /tmp/ccrAem8Q.s:279    .text:00000000000001dc .L0 
     /tmp/ccrAem8Q.s:290    .text:00000000000001f4 .L0 
     /tmp/ccrAem8Q.s:409    .text:0000000000000268 .L0 
     /tmp/ccrAem8Q.s:441    .text:0000000000000298 .L0 
     /tmp/ccrAem8Q.s:461    .text:00000000000002ac .L0 
     /tmp/ccrAem8Q.s:469    .text:00000000000002b8 .L0 
     /tmp/ccrAem8Q.s:563    .text:0000000000000378 .L0 
     /tmp/ccrAem8Q.s:649    .text:000000000000041c .L0 
     /tmp/ccrAem8Q.s:655    .text:0000000000000424 .L0 
     /tmp/ccrAem8Q.s:661    .text:0000000000000438 .L0 
     /tmp/ccrAem8Q.s:671    .text:0000000000000448 .L0 
     /tmp/ccrAem8Q.s:682    .text:0000000000000460 .L0 
     /tmp/ccrAem8Q.s:814    .text:00000000000004ec .L0 
     /tmp/ccrAem8Q.s:822    .text:00000000000004f8 .L0 
     /tmp/ccrAem8Q.s:929    .text:00000000000005c8 .L0 
     /tmp/ccrAem8Q.s:997    .text:0000000000000610 .L0 
     /tmp/ccrAem8Q.s:1007   .text:0000000000000620 .L0 
     /tmp/ccrAem8Q.s:1120   .text:00000000000006f8 .L0 
     /tmp/ccrAem8Q.s:355    .text:0000000000000264 .L16
     /tmp/ccrAem8Q.s:66     .text:0000000000000044 .L12
     /tmp/ccrAem8Q.s:338    .text:000000000000024c .L1
     /tmp/ccrAem8Q.s:87     .text:0000000000000068 .L17
     /tmp/ccrAem8Q.s:275    .text:00000000000001dc .L4
     /tmp/ccrAem8Q.s:76     .text:0000000000000050 .L3
     /tmp/ccrAem8Q.s:49     .text:0000000000000030 .L6
     /tmp/ccrAem8Q.s:263    .text:00000000000001bc .L7
     /tmp/ccrAem8Q.s:190    .text:0000000000000138 .L18
     /tmp/ccrAem8Q.s:748    .text:00000000000004d0 .L34
     /tmp/ccrAem8Q.s:454    .text:00000000000002ac .L30
     /tmp/ccrAem8Q.s:730    .text:00000000000004b8 .L19
     /tmp/ccrAem8Q.s:475    .text:00000000000002d0 .L35
     /tmp/ccrAem8Q.s:666    .text:0000000000000448 .L22
     /tmp/ccrAem8Q.s:464    .text:00000000000002b8 .L21
     /tmp/ccrAem8Q.s:437    .text:0000000000000298 .L24
     /tmp/ccrAem8Q.s:650    .text:0000000000000424 .L25
     /tmp/ccrAem8Q.s:577    .text:00000000000003a0 .L36
     /tmp/ccrAem8Q.s:840    .text:0000000000000520 .L43
     /tmp/ccrAem8Q.s:817    .text:00000000000004f8 .L38
     /tmp/ccrAem8Q.s:1029   .text:0000000000000650 .L50
     /tmp/ccrAem8Q.s:1001   .text:000000000000061c .L45
     /tmp/ccrAem8Q.s:83     .text:000000000000005c .LEHB0
     /tmp/ccrAem8Q.s:10     .text:0000000000000000 .LFB33
     /tmp/ccrAem8Q.s:95     .text:0000000000000074 .LEHE0
     /tmp/ccrAem8Q.s:113    .text:000000000000008c .LEHB1
     /tmp/ccrAem8Q.s:171    .text:0000000000000110 .LEHE1
     /tmp/ccrAem8Q.s:179    .text:000000000000011c .L9
     /tmp/ccrAem8Q.s:186    .text:0000000000000130 .LEHB2
     /tmp/ccrAem8Q.s:189    .text:0000000000000138 .LEHE2
     /tmp/ccrAem8Q.s:205    .text:0000000000000140 .LEHB3
GAS LISTING /tmp/ccrAem8Q.s 			page 34


     /tmp/ccrAem8Q.s:257    .text:00000000000001b4 .LEHE3
     /tmp/ccrAem8Q.s:321    .text:0000000000000230 .L10
     /tmp/ccrAem8Q.s:272    .text:00000000000001d4 .LEHB4
     /tmp/ccrAem8Q.s:298    .text:000000000000020c .LEHE4
     /tmp/ccrAem8Q.s:315    .text:0000000000000224 .LEHB5
     /tmp/ccrAem8Q.s:318    .text:000000000000022c .LEHE5
     /tmp/ccrAem8Q.s:334    .text:0000000000000244 .LEHB6
     /tmp/ccrAem8Q.s:337    .text:000000000000024c .LEHE6
     /tmp/ccrAem8Q.s:471    .text:00000000000002c4 .LEHB7
     /tmp/ccrAem8Q.s:400    .text:0000000000000268 .LFB34
     /tmp/ccrAem8Q.s:483    .text:00000000000002dc .LEHE7
     /tmp/ccrAem8Q.s:500    .text:00000000000002f4 .LEHB8
     /tmp/ccrAem8Q.s:558    .text:0000000000000378 .LEHE8
     /tmp/ccrAem8Q.s:566    .text:0000000000000384 .L27
     /tmp/ccrAem8Q.s:573    .text:0000000000000398 .LEHB9
     /tmp/ccrAem8Q.s:576    .text:00000000000003a0 .LEHE9
     /tmp/ccrAem8Q.s:592    .text:00000000000003a8 .LEHB10
     /tmp/ccrAem8Q.s:644    .text:000000000000041c .LEHE10
     /tmp/ccrAem8Q.s:713    .text:000000000000049c .L28
     /tmp/ccrAem8Q.s:657    .text:0000000000000430 .LEHB11
     /tmp/ccrAem8Q.s:690    .text:0000000000000478 .LEHE11
     /tmp/ccrAem8Q.s:707    .text:0000000000000490 .LEHB12
     /tmp/ccrAem8Q.s:710    .text:0000000000000498 .LEHE12
     /tmp/ccrAem8Q.s:726    .text:00000000000004b0 .LEHB13
     /tmp/ccrAem8Q.s:729    .text:00000000000004b8 .LEHE13
     /tmp/ccrAem8Q.s:823    .text:0000000000000500 .LEHB14
     /tmp/ccrAem8Q.s:792    .text:00000000000004d4 .LFB35
     /tmp/ccrAem8Q.s:849    .text:000000000000052c .LEHE14
     /tmp/ccrAem8Q.s:866    .text:0000000000000544 .LEHB15
     /tmp/ccrAem8Q.s:924    .text:00000000000005c8 .LEHE15
     /tmp/ccrAem8Q.s:932    .text:00000000000005d4 .L40
     /tmp/ccrAem8Q.s:939    .text:00000000000005e8 .LEHB16
     /tmp/ccrAem8Q.s:942    .text:00000000000005f0 .LEHE16
     /tmp/ccrAem8Q.s:1009   .text:000000000000062c .LEHB17
     /tmp/ccrAem8Q.s:971    .text:00000000000005f0 .LFB36
     /tmp/ccrAem8Q.s:1039   .text:000000000000065c .LEHE17
     /tmp/ccrAem8Q.s:1057   .text:0000000000000674 .LEHB18
     /tmp/ccrAem8Q.s:1115   .text:00000000000006f8 .LEHE18
     /tmp/ccrAem8Q.s:1123   .text:0000000000000704 .L47
     /tmp/ccrAem8Q.s:1130   .text:0000000000000718 .LEHB19
     /tmp/ccrAem8Q.s:1133   .text:0000000000000720 .LEHE19
     /tmp/ccrAem8Q.s:3562   .debug_abbrev:0000000000000000 .Ldebug_abbrev0
     /tmp/ccrAem8Q.s:5286   .debug_str:00000000000006e6 .LASF133
     /tmp/ccrAem8Q.s:5242   .debug_str:000000000000057d .LASF134
     /tmp/ccrAem8Q.s:5226   .debug_str:00000000000004ff .LASF135
     /tmp/ccrAem8Q.s:5      .text:0000000000000000 .Ltext0
     /tmp/ccrAem8Q.s:1167   .text:0000000000000720 .Letext0
     /tmp/ccrAem8Q.s:5038   .debug_line:0000000000000000 .Ldebug_line0
     /tmp/ccrAem8Q.s:5208   .debug_str:00000000000004a3 .LASF0
     /tmp/ccrAem8Q.s:5224   .debug_str:00000000000004ec .LASF1
     /tmp/ccrAem8Q.s:5188   .debug_str:0000000000000405 .LASF2
     /tmp/ccrAem8Q.s:5110   .debug_str:00000000000001fe .LASF3
     /tmp/ccrAem8Q.s:5152   .debug_str:0000000000000336 .LASF4
     /tmp/ccrAem8Q.s:5270   .debug_str:0000000000000676 .LASF5
     /tmp/ccrAem8Q.s:5064   .debug_str:0000000000000084 .LASF6
     /tmp/ccrAem8Q.s:5228   .debug_str:000000000000052b .LASF7
     /tmp/ccrAem8Q.s:5206   .debug_str:0000000000000490 .LASF8
GAS LISTING /tmp/ccrAem8Q.s 			page 35


     /tmp/ccrAem8Q.s:5298   .debug_str:00000000000007ec .LASF9
     /tmp/ccrAem8Q.s:5136   .debug_str:00000000000002b2 .LASF10
     /tmp/ccrAem8Q.s:5306   .debug_str:0000000000000824 .LASF11
     /tmp/ccrAem8Q.s:5290   .debug_str:00000000000007b6 .LASF12
     /tmp/ccrAem8Q.s:5068   .debug_str:0000000000000091 .LASF13
     /tmp/ccrAem8Q.s:5044   .debug_str:000000000000001c .LASF14
     /tmp/ccrAem8Q.s:5082   .debug_str:0000000000000104 .LASF15
     /tmp/ccrAem8Q.s:5262   .debug_str:000000000000062e .LASF16
     /tmp/ccrAem8Q.s:5096   .debug_str:0000000000000172 .LASF17
     /tmp/ccrAem8Q.s:5140   .debug_str:00000000000002d8 .LASF136
     /tmp/ccrAem8Q.s:5278   .debug_str:00000000000006b4 .LASF18
     /tmp/ccrAem8Q.s:5238   .debug_str:0000000000000570 .LASF19
     /tmp/ccrAem8Q.s:5154   .debug_str:000000000000033d .LASF20
     /tmp/ccrAem8Q.s:5054   .debug_str:000000000000004a .LASF21
     /tmp/ccrAem8Q.s:5052   .debug_str:0000000000000042 .LASF137
     /tmp/ccrAem8Q.s:5328   .debug_str:00000000000008fe .LASF76
     /tmp/ccrAem8Q.s:5164   .debug_str:000000000000036b .LASF24
     /tmp/ccrAem8Q.s:5310   .debug_str:000000000000084b .LASF26
     /tmp/ccrAem8Q.s:5254   .debug_str:00000000000005ee .LASF22
     /tmp/ccrAem8Q.s:5216   .debug_str:00000000000004ca .LASF23
     /tmp/ccrAem8Q.s:5230   .debug_str:000000000000053e .LASF28
     /tmp/ccrAem8Q.s:5134   .debug_str:000000000000029b .LASF30
     /tmp/ccrAem8Q.s:5190   .debug_str:0000000000000413 .LASF25
     /tmp/ccrAem8Q.s:5146   .debug_str:00000000000002f2 .LASF27
     /tmp/ccrAem8Q.s:5050   .debug_str:0000000000000038 .LASF29
     /tmp/ccrAem8Q.s:5168   .debug_str:0000000000000389 .LASF31
     /tmp/ccrAem8Q.s:5156   .debug_str:0000000000000345 .LASF32
     /tmp/ccrAem8Q.s:5294   .debug_str:00000000000007cd .LASF33
     /tmp/ccrAem8Q.s:5202   .debug_str:000000000000046e .LASF34
     /tmp/ccrAem8Q.s:5106   .debug_str:00000000000001dd .LASF35
     /tmp/ccrAem8Q.s:5114   .debug_str:0000000000000211 .LASF36
     /tmp/ccrAem8Q.s:5124   .debug_str:0000000000000245 .LASF37
     /tmp/ccrAem8Q.s:5130   .debug_str:000000000000026c .LASF38
     /tmp/ccrAem8Q.s:5330   .debug_str:0000000000000903 .LASF39
     /tmp/ccrAem8Q.s:5080   .debug_str:00000000000000f7 .LASF40
     /tmp/ccrAem8Q.s:5070   .debug_str:00000000000000a1 .LASF41
     /tmp/ccrAem8Q.s:5266   .debug_str:0000000000000663 .LASF42
     /tmp/ccrAem8Q.s:5086   .debug_str:0000000000000127 .LASF43
     /tmp/ccrAem8Q.s:5196   .debug_str:0000000000000445 .LASF44
     /tmp/ccrAem8Q.s:5100   .debug_str:00000000000001a1 .LASF45
     /tmp/ccrAem8Q.s:5244   .debug_str:0000000000000593 .LASF46
     /tmp/ccrAem8Q.s:5264   .debug_str:0000000000000644 .LASF47
     /tmp/ccrAem8Q.s:5176   .debug_str:00000000000003b7 .LASF48
     /tmp/ccrAem8Q.s:5062   .debug_str:000000000000006b .LASF49
     /tmp/ccrAem8Q.s:5296   .debug_str:00000000000007e3 .LASF50
     /tmp/ccrAem8Q.s:5122   .debug_str:0000000000000231 .LASF51
     /tmp/ccrAem8Q.s:5288   .debug_str:00000000000007aa .LASF52
     /tmp/ccrAem8Q.s:5076   .debug_str:00000000000000d0 .LASF53
     /tmp/ccrAem8Q.s:5120   .debug_str:000000000000022b .LASF54
     /tmp/ccrAem8Q.s:5198   .debug_str:0000000000000459 .LASF56
     /tmp/ccrAem8Q.s:5274   .debug_str:0000000000000699 .LASF69
     /tmp/ccrAem8Q.s:5246   .debug_str:00000000000005a7 .LASF95
     /tmp/ccrAem8Q.s:5174   .debug_str:00000000000003b2 .LASF55
     /tmp/ccrAem8Q.s:5074   .debug_str:00000000000000c1 .LASF57
     /tmp/ccrAem8Q.s:5118   .debug_str:0000000000000223 .LASF83
     /tmp/ccrAem8Q.s:5142   .debug_str:00000000000002de .LASF58
     /tmp/ccrAem8Q.s:5250   .debug_str:00000000000005bd .LASF59
GAS LISTING /tmp/ccrAem8Q.s 			page 36


     /tmp/ccrAem8Q.s:5160   .debug_str:000000000000035e .LASF60
     /tmp/ccrAem8Q.s:5218   .debug_str:00000000000004d3 .LASF61
     /tmp/ccrAem8Q.s:5214   .debug_str:00000000000004c4 .LASF62
     /tmp/ccrAem8Q.s:5128   .debug_str:0000000000000264 .LASF63
     /tmp/ccrAem8Q.s:5060   .debug_str:0000000000000065 .LASF64
     /tmp/ccrAem8Q.s:5162   .debug_str:0000000000000363 .LASF65
     /tmp/ccrAem8Q.s:5210   .debug_str:00000000000004b0 .LASF66
     /tmp/ccrAem8Q.s:5042   .debug_str:000000000000000f .LASF67
     /tmp/ccrAem8Q.s:5166   .debug_str:0000000000000378 .LASF68
     /tmp/ccrAem8Q.s:5204   .debug_str:0000000000000479 .LASF90
     /tmp/ccrAem8Q.s:5312   .debug_str:000000000000086d .LASF138
     /tmp/ccrAem8Q.s:5148   .debug_str:0000000000000309 .LASF139
     /tmp/ccrAem8Q.s:5180   .debug_str:00000000000003d7 .LASF70
     /tmp/ccrAem8Q.s:5314   .debug_str:000000000000087b .LASF72
     /tmp/ccrAem8Q.s:5212   .debug_str:00000000000004bb .LASF71
     /tmp/ccrAem8Q.s:5178   .debug_str:00000000000003c4 .LASF73
     /tmp/ccrAem8Q.s:5316   .debug_str:0000000000000894 .LASF74
     /tmp/ccrAem8Q.s:5170   .debug_str:000000000000039e .LASF75
     /tmp/ccrAem8Q.s:5272   .debug_str:0000000000000688 .LASF77
     /tmp/ccrAem8Q.s:5116   .debug_str:000000000000021d .LASF78
     /tmp/ccrAem8Q.s:5150   .debug_str:0000000000000331 .LASF140
     /tmp/ccrAem8Q.s:5058   .debug_str:0000000000000058 .LASF79
     /tmp/ccrAem8Q.s:5102   .debug_str:00000000000001c0 .LASF80
     /tmp/ccrAem8Q.s:5222   .debug_str:00000000000004e7 .LASF81
     /tmp/ccrAem8Q.s:5280   .debug_str:00000000000006bd .LASF82
     /tmp/ccrAem8Q.s:5126   .debug_str:000000000000025c .LASF84
     /tmp/ccrAem8Q.s:5260   .debug_str:0000000000000627 .LASF85
     /tmp/ccrAem8Q.s:5172   .debug_str:00000000000003a9 .LASF86
     /tmp/ccrAem8Q.s:5220   .debug_str:00000000000004dc .LASF87
     /tmp/ccrAem8Q.s:5108   .debug_str:00000000000001f4 .LASF88
     /tmp/ccrAem8Q.s:5282   .debug_str:00000000000006c2 .LASF89
     /tmp/ccrAem8Q.s:5138   .debug_str:00000000000002c0 .LASF141
     /tmp/ccrAem8Q.s:5104   .debug_str:00000000000001c5 .LASF91
     /tmp/ccrAem8Q.s:5234   .debug_str:000000000000055b .LASF92
     /tmp/ccrAem8Q.s:5158   .debug_str:0000000000000350 .LASF93
     /tmp/ccrAem8Q.s:5182   .debug_str:00000000000003e5 .LASF94
     /tmp/ccrAem8Q.s:5256   .debug_str:00000000000005f3 .LASF96
     /tmp/ccrAem8Q.s:5066   .debug_str:000000000000008b .LASF97
     /tmp/ccrAem8Q.s:5302   .debug_str:0000000000000814 .LASF98
     /tmp/ccrAem8Q.s:5184   .debug_str:00000000000003ee .LASF99
     /tmp/ccrAem8Q.s:5048   .debug_str:0000000000000031 .LASF100
     /tmp/ccrAem8Q.s:5284   .debug_str:00000000000006d8 .LASF101
     /tmp/ccrAem8Q.s:5252   .debug_str:00000000000005c9 .LASF102
     /tmp/ccrAem8Q.s:5092   .debug_str:000000000000015c .LASF103
     /tmp/ccrAem8Q.s:5132   .debug_str:0000000000000276 .LASF104
     /tmp/ccrAem8Q.s:5200   .debug_str:0000000000000469 .LASF105
     /tmp/ccrAem8Q.s:5320   .debug_str:00000000000008ac .LASF106
     /tmp/ccrAem8Q.s:5046   .debug_str:000000000000002c .LASF107
     /tmp/ccrAem8Q.s:5194   .debug_str:000000000000042b .LASF142
     /tmp/ccrAem8Q.s:5098   .debug_str:0000000000000188 .LASF143
     /tmp/ccrAem8Q.s:5040   .debug_str:0000000000000000 .LASF108
     /tmp/ccrAem8Q.s:5326   .debug_str:00000000000008e7 .LASF109
     /tmp/ccrAem8Q.s:5240   .debug_str:0000000000000578 .LASF110
     /tmp/ccrAem8Q.s:5112   .debug_str:0000000000000204 .LASF111
     /tmp/ccrAem8Q.s:5186   .debug_str:00000000000003f5 .LASF112
     /tmp/ccrAem8Q.s:5324   .debug_str:00000000000008dd .LASF144
     /tmp/ccrAem8Q.s:5078   .debug_str:00000000000000e7 .LASF145
GAS LISTING /tmp/ccrAem8Q.s 			page 37


     /tmp/ccrAem8Q.s:5292   .debug_str:00000000000007c5 .LASF113
     /tmp/ccrAem8Q.s:5084   .debug_str:0000000000000110 .LASF114
     /tmp/ccrAem8Q.s:5192   .debug_str:000000000000041f .LASF115
     /tmp/ccrAem8Q.s:5308   .debug_str:0000000000000833 .LASF116
     /tmp/ccrAem8Q.s:5056   .debug_str:0000000000000053 .LASF117
     /tmp/ccrAem8Q.s:5258   .debug_str:000000000000060a .LASF146
     /tmp/ccrAem8Q.s:1137   .text:0000000000000720 .LFE36
     /tmp/ccrAem8Q.s:5072   .debug_str:00000000000000b9 .LASF118
     /tmp/ccrAem8Q.s:4737   .debug_loc:0000000000000000 .LLST15
     /tmp/ccrAem8Q.s:993    .text:0000000000000610 .LBB164
     /tmp/ccrAem8Q.s:4964   .debug_ranges:0000000000000000 .Ldebug_ranges0
     /tmp/ccrAem8Q.s:1042   .text:0000000000000660 .LBB166
     /tmp/ccrAem8Q.s:1118   .text:00000000000006f8 .LBE166
     /tmp/ccrAem8Q.s:4762   .debug_loc:0000000000000062 .LLST16
     /tmp/ccrAem8Q.s:1045   .text:0000000000000660 .LBB169
     /tmp/ccrAem8Q.s:1074   .text:000000000000069c .LBE169
     /tmp/ccrAem8Q.s:4777   .debug_loc:00000000000000ab .LLST17
     /tmp/ccrAem8Q.s:1059   .text:000000000000067c .LVL93
     /tmp/ccrAem8Q.s:1065   .text:000000000000068c .LVL94
     /tmp/ccrAem8Q.s:1071   .text:000000000000069c .LVL95
     /tmp/ccrAem8Q.s:1075   .text:000000000000069c .LBB172
     /tmp/ccrAem8Q.s:1102   .text:00000000000006d8 .LBE172
     /tmp/ccrAem8Q.s:1087   .text:00000000000006b8 .LVL96
     /tmp/ccrAem8Q.s:1093   .text:00000000000006c8 .LVL97
     /tmp/ccrAem8Q.s:1099   .text:00000000000006d8 .LVL98
     /tmp/ccrAem8Q.s:1108   .text:00000000000006e8 .LVL99
     /tmp/ccrAem8Q.s:1114   .text:00000000000006f8 .LVL100
     /tmp/ccrAem8Q.s:1038   .text:000000000000065c .LVL90
     /tmp/ccrAem8Q.s:1128   .text:0000000000000714 .LVL102
     /tmp/ccrAem8Q.s:1011   .text:0000000000000634 .LVL87
     /tmp/ccrAem8Q.s:1132   .text:0000000000000720 .LVL103
     /tmp/ccrAem8Q.s:946    .text:00000000000005f0 .LFE35
     /tmp/ccrAem8Q.s:810    .text:00000000000004ec .LBB140
     /tmp/ccrAem8Q.s:852    .text:0000000000000530 .LBB142
     /tmp/ccrAem8Q.s:927    .text:00000000000005c8 .LBE142
     /tmp/ccrAem8Q.s:4788   .debug_loc:00000000000000e1 .LLST13
     /tmp/ccrAem8Q.s:855    .text:0000000000000530 .LBB145
     /tmp/ccrAem8Q.s:883    .text:000000000000056c .LBE145
     /tmp/ccrAem8Q.s:4799   .debug_loc:0000000000000117 .LLST14
     /tmp/ccrAem8Q.s:868    .text:000000000000054c .LVL74
     /tmp/ccrAem8Q.s:874    .text:000000000000055c .LVL75
     /tmp/ccrAem8Q.s:880    .text:000000000000056c .LVL76
     /tmp/ccrAem8Q.s:884    .text:000000000000056c .LBB148
     /tmp/ccrAem8Q.s:911    .text:00000000000005a8 .LBE148
     /tmp/ccrAem8Q.s:896    .text:0000000000000588 .LVL77
     /tmp/ccrAem8Q.s:902    .text:0000000000000598 .LVL78
     /tmp/ccrAem8Q.s:908    .text:00000000000005a8 .LVL79
     /tmp/ccrAem8Q.s:917    .text:00000000000005b8 .LVL80
     /tmp/ccrAem8Q.s:923    .text:00000000000005c8 .LVL81
     /tmp/ccrAem8Q.s:848    .text:000000000000052c .LVL72
     /tmp/ccrAem8Q.s:937    .text:00000000000005e4 .LVL83
     /tmp/ccrAem8Q.s:825    .text:0000000000000508 .LVL71
     /tmp/ccrAem8Q.s:941    .text:00000000000005f0 .LVL84
     /tmp/ccrAem8Q.s:751    .text:00000000000004d4 .LFE34
     /tmp/ccrAem8Q.s:5094   .debug_str:000000000000016a .LASF119
     /tmp/ccrAem8Q.s:4806   .debug_loc:000000000000013a .LLST6
     /tmp/ccrAem8Q.s:455    .text:00000000000002ac .LBB96
GAS LISTING /tmp/ccrAem8Q.s 			page 38


     /tmp/ccrAem8Q.s:733    .text:00000000000004b8 .LBE96
     /tmp/ccrAem8Q.s:4824   .debug_loc:0000000000000186 .LLST8
     /tmp/ccrAem8Q.s:457    .text:00000000000002ac .LBB97
     /tmp/ccrAem8Q.s:486    .text:00000000000002e0 .LBB99
     /tmp/ccrAem8Q.s:561    .text:0000000000000378 .LBE99
     /tmp/ccrAem8Q.s:4831   .debug_loc:00000000000001a9 .LLST9
     /tmp/ccrAem8Q.s:489    .text:00000000000002e0 .LBB102
     /tmp/ccrAem8Q.s:517    .text:000000000000031c .LBE102
     /tmp/ccrAem8Q.s:4842   .debug_loc:00000000000001df .LLST10
     /tmp/ccrAem8Q.s:502    .text:00000000000002fc .LVL44
     /tmp/ccrAem8Q.s:508    .text:000000000000030c .LVL45
     /tmp/ccrAem8Q.s:514    .text:000000000000031c .LVL46
     /tmp/ccrAem8Q.s:518    .text:000000000000031c .LBB105
     /tmp/ccrAem8Q.s:545    .text:0000000000000358 .LBE105
     /tmp/ccrAem8Q.s:530    .text:0000000000000338 .LVL47
     /tmp/ccrAem8Q.s:536    .text:0000000000000348 .LVL48
     /tmp/ccrAem8Q.s:542    .text:0000000000000358 .LVL49
     /tmp/ccrAem8Q.s:551    .text:0000000000000368 .LVL50
     /tmp/ccrAem8Q.s:557    .text:0000000000000378 .LVL51
     /tmp/ccrAem8Q.s:482    .text:00000000000002dc .LVL42
     /tmp/ccrAem8Q.s:571    .text:0000000000000394 .LVL53
     /tmp/ccrAem8Q.s:580    .text:00000000000003a0 .LBB110
     /tmp/ccrAem8Q.s:582    .text:00000000000003a0 .LBB112
     /tmp/ccrAem8Q.s:4849   .debug_loc:0000000000000202 .LLST11
     /tmp/ccrAem8Q.s:585    .text:00000000000003a0 .LBB115
     /tmp/ccrAem8Q.s:4860   .debug_loc:0000000000000238 .LLST12
     /tmp/ccrAem8Q.s:594    .text:00000000000003b0 .LVL55
     /tmp/ccrAem8Q.s:600    .text:00000000000003c0 .LVL56
     /tmp/ccrAem8Q.s:709    .text:0000000000000498 .LVL66
     /tmp/ccrAem8Q.s:604    .text:00000000000003c0 .LBB120
     /tmp/ccrAem8Q.s:631    .text:00000000000003fc .LBE120
     /tmp/ccrAem8Q.s:616    .text:00000000000003dc .LVL57
     /tmp/ccrAem8Q.s:622    .text:00000000000003ec .LVL58
     /tmp/ccrAem8Q.s:628    .text:00000000000003fc .LVL59
     /tmp/ccrAem8Q.s:637    .text:000000000000040c .LVL60
     /tmp/ccrAem8Q.s:643    .text:000000000000041c .LVL61
     /tmp/ccrAem8Q.s:689    .text:0000000000000478 .LVL64
     /tmp/ccrAem8Q.s:724    .text:00000000000004ac .LVL68
     /tmp/ccrAem8Q.s:473    .text:00000000000002cc .LVL41
     /tmp/ccrAem8Q.s:659    .text:0000000000000438 .LVL62
     /tmp/ccrAem8Q.s:412    .text:0000000000000274 .LBB92
     /tmp/ccrAem8Q.s:4871   .debug_loc:000000000000026e .LLST7
     /tmp/ccrAem8Q.s:575    .text:00000000000003a0 .LVL54
     /tmp/ccrAem8Q.s:728    .text:00000000000004b8 .LVL69
     /tmp/ccrAem8Q.s:358    .text:0000000000000268 .LFE33
     /tmp/ccrAem8Q.s:4882   .debug_loc:00000000000002a4 .LLST0
     /tmp/ccrAem8Q.s:23     .text:000000000000000c .LBB31
     /tmp/ccrAem8Q.s:4900   .debug_loc:00000000000002f0 .LLST1
     /tmp/ccrAem8Q.s:68     .text:0000000000000044 .LBB35
     /tmp/ccrAem8Q.s:98     .text:0000000000000078 .LBB37
     /tmp/ccrAem8Q.s:174    .text:0000000000000110 .LBE37
     /tmp/ccrAem8Q.s:4911   .debug_loc:0000000000000326 .LLST2
     /tmp/ccrAem8Q.s:101    .text:0000000000000078 .LBB40
     /tmp/ccrAem8Q.s:130    .text:00000000000000b4 .LBE40
     /tmp/ccrAem8Q.s:4922   .debug_loc:000000000000035c .LLST3
     /tmp/ccrAem8Q.s:115    .text:0000000000000094 .LVL9
     /tmp/ccrAem8Q.s:121    .text:00000000000000a4 .LVL10
GAS LISTING /tmp/ccrAem8Q.s 			page 39


     /tmp/ccrAem8Q.s:127    .text:00000000000000b4 .LVL11
     /tmp/ccrAem8Q.s:131    .text:00000000000000b4 .LBB43
     /tmp/ccrAem8Q.s:158    .text:00000000000000f0 .LBE43
     /tmp/ccrAem8Q.s:143    .text:00000000000000d0 .LVL12
     /tmp/ccrAem8Q.s:149    .text:00000000000000e0 .LVL13
     /tmp/ccrAem8Q.s:155    .text:00000000000000f0 .LVL14
     /tmp/ccrAem8Q.s:164    .text:0000000000000100 .LVL15
     /tmp/ccrAem8Q.s:170    .text:0000000000000110 .LVL16
     /tmp/ccrAem8Q.s:94     .text:0000000000000074 .LVL7
     /tmp/ccrAem8Q.s:184    .text:000000000000012c .LVL18
     /tmp/ccrAem8Q.s:193    .text:0000000000000138 .LBB48
     /tmp/ccrAem8Q.s:195    .text:0000000000000138 .LBB50
     /tmp/ccrAem8Q.s:4929   .debug_loc:000000000000037f .LLST4
     /tmp/ccrAem8Q.s:198    .text:0000000000000138 .LBB53
     /tmp/ccrAem8Q.s:4940   .debug_loc:00000000000003b5 .LLST5
     /tmp/ccrAem8Q.s:207    .text:0000000000000148 .LVL20
     /tmp/ccrAem8Q.s:213    .text:0000000000000158 .LVL21
     /tmp/ccrAem8Q.s:317    .text:000000000000022c .LVL30
     /tmp/ccrAem8Q.s:217    .text:0000000000000158 .LBB58
     /tmp/ccrAem8Q.s:244    .text:0000000000000194 .LBE58
     /tmp/ccrAem8Q.s:229    .text:0000000000000174 .LVL22
     /tmp/ccrAem8Q.s:235    .text:0000000000000184 .LVL23
     /tmp/ccrAem8Q.s:241    .text:0000000000000194 .LVL24
     /tmp/ccrAem8Q.s:250    .text:00000000000001a4 .LVL25
     /tmp/ccrAem8Q.s:256    .text:00000000000001b4 .LVL26
     /tmp/ccrAem8Q.s:297    .text:000000000000020c .LVL28
     /tmp/ccrAem8Q.s:332    .text:0000000000000240 .LVL32
     /tmp/ccrAem8Q.s:85     .text:0000000000000064 .LVL6
     /tmp/ccrAem8Q.s:188    .text:0000000000000138 .LVL19
     /tmp/ccrAem8Q.s:274    .text:00000000000001dc .LVL27
     /tmp/ccrAem8Q.s:336    .text:000000000000024c .LVL33
     /tmp/ccrAem8Q.s:5248   .debug_str:00000000000005b8 .LASF120
     /tmp/ccrAem8Q.s:5322   .debug_str:00000000000008c6 .LASF121
     /tmp/ccrAem8Q.s:5276   .debug_str:000000000000069e .LASF122
     /tmp/ccrAem8Q.s:5090   .debug_str:0000000000000148 .LASF129
     /tmp/ccrAem8Q.s:5304   .debug_str:000000000000081b .LASF131
     /tmp/ccrAem8Q.s:5268   .debug_str:0000000000000670 .LASF123
     /tmp/ccrAem8Q.s:5318   .debug_str:000000000000089f .LASF125
     /tmp/ccrAem8Q.s:5332   .debug_str:0000000000000917 .LASF124
     /tmp/ccrAem8Q.s:5236   .debug_str:0000000000000560 .LASF126
     /tmp/ccrAem8Q.s:5144   .debug_str:00000000000002e3 .LASF127
     /tmp/ccrAem8Q.s:5300   .debug_str:00000000000007fc .LASF128
     /tmp/ccrAem8Q.s:5232   .debug_str:0000000000000549 .LASF130
     /tmp/ccrAem8Q.s:5088   .debug_str:000000000000013f .LASF132
     /tmp/ccrAem8Q.s:976    .text:00000000000005f0 .LVL85
     /tmp/ccrAem8Q.s:1000   .text:000000000000061c .LVL86
     /tmp/ccrAem8Q.s:1028   .text:0000000000000650 .LVL88
     /tmp/ccrAem8Q.s:1036   .text:0000000000000654 .LVL89
     /tmp/ccrAem8Q.s:1041   .text:0000000000000660 .LVL91
     /tmp/ccrAem8Q.s:1056   .text:0000000000000674 .LVL92
     /tmp/ccrAem8Q.s:1122   .text:0000000000000704 .LVL101
     /tmp/ccrAem8Q.s:851    .text:0000000000000530 .LVL73
     /tmp/ccrAem8Q.s:931    .text:00000000000005d4 .LVL82
     /tmp/ccrAem8Q.s:405    .text:0000000000000268 .LVL35
     /tmp/ccrAem8Q.s:436    .text:0000000000000298 .LVL38
     /tmp/ccrAem8Q.s:747    .text:00000000000004d0 .LVL70
     /tmp/ccrAem8Q.s:665    .text:0000000000000448 .LVL63
GAS LISTING /tmp/ccrAem8Q.s 			page 40


     /tmp/ccrAem8Q.s:485    .text:00000000000002e0 .LVL43
     /tmp/ccrAem8Q.s:565    .text:0000000000000384 .LVL52
     /tmp/ccrAem8Q.s:692    .text:000000000000047c .LVL65
     /tmp/ccrAem8Q.s:712    .text:000000000000049c .LVL67
     /tmp/ccrAem8Q.s:411    .text:0000000000000274 .LVL36
     /tmp/ccrAem8Q.s:417    .text:0000000000000278 .LVL37
     /tmp/ccrAem8Q.s:443    .text:00000000000002a4 .LVL39
     /tmp/ccrAem8Q.s:449    .text:00000000000002a8 .LVL40
     /tmp/ccrAem8Q.s:16     .text:0000000000000000 .LVL0
     /tmp/ccrAem8Q.s:48     .text:0000000000000030 .LVL3
     /tmp/ccrAem8Q.s:354    .text:0000000000000264 .LVL34
     /tmp/ccrAem8Q.s:22     .text:000000000000000c .LVL1
     /tmp/ccrAem8Q.s:29     .text:0000000000000010 .LVL2
     /tmp/ccrAem8Q.s:55     .text:000000000000003c .LVL4
     /tmp/ccrAem8Q.s:61     .text:0000000000000040 .LVL5
     /tmp/ccrAem8Q.s:97     .text:0000000000000078 .LVL8
     /tmp/ccrAem8Q.s:178    .text:000000000000011c .LVL17
     /tmp/ccrAem8Q.s:300    .text:0000000000000210 .LVL29
     /tmp/ccrAem8Q.s:320    .text:0000000000000230 .LVL31
     /tmp/ccrAem8Q.s:1172   .debug_info:0000000000000000 .Ldebug_info0
     /tmp/ccrAem8Q.s:31     .text:0000000000000010 .LBE31
     /tmp/ccrAem8Q.s:56     .text:000000000000003c .LBB34
     /tmp/ccrAem8Q.s:63     .text:0000000000000040 .LBE34
     /tmp/ccrAem8Q.s:79     .text:0000000000000050 .LBE35
     /tmp/ccrAem8Q.s:88     .text:0000000000000068 .LBB47
     /tmp/ccrAem8Q.s:192    .text:0000000000000138 .LBE47
     /tmp/ccrAem8Q.s:266    .text:00000000000001bc .LBE48
     /tmp/ccrAem8Q.s:286    .text:00000000000001f4 .LBB66
     /tmp/ccrAem8Q.s:340    .text:000000000000024c .LBE66
     /tmp/ccrAem8Q.s:260    .text:00000000000001b4 .LBE50
     /tmp/ccrAem8Q.s:301    .text:0000000000000210 .LBB64
     /tmp/ccrAem8Q.s:328    .text:0000000000000234 .LBE64
     /tmp/ccrAem8Q.s:216    .text:0000000000000158 .LBE53
     /tmp/ccrAem8Q.s:304    .text:0000000000000210 .LBB61
     /tmp/ccrAem8Q.s:325    .text:0000000000000234 .LBE61
     /tmp/ccrAem8Q.s:419    .text:0000000000000278 .LBE92
     /tmp/ccrAem8Q.s:444    .text:00000000000002a4 .LBB95
     /tmp/ccrAem8Q.s:451    .text:00000000000002a8 .LBE95
     /tmp/ccrAem8Q.s:467    .text:00000000000002b8 .LBE97
     /tmp/ccrAem8Q.s:476    .text:00000000000002d0 .LBB109
     /tmp/ccrAem8Q.s:579    .text:00000000000003a0 .LBE109
     /tmp/ccrAem8Q.s:653    .text:0000000000000424 .LBE110
     /tmp/ccrAem8Q.s:678    .text:0000000000000460 .LBB128
     /tmp/ccrAem8Q.s:732    .text:00000000000004b8 .LBE128
     /tmp/ccrAem8Q.s:647    .text:000000000000041c .LBE112
     /tmp/ccrAem8Q.s:693    .text:000000000000047c .LBB126
     /tmp/ccrAem8Q.s:720    .text:00000000000004a0 .LBE126
     /tmp/ccrAem8Q.s:603    .text:00000000000003c0 .LBE115
     /tmp/ccrAem8Q.s:696    .text:000000000000047c .LBB123
     /tmp/ccrAem8Q.s:717    .text:00000000000004a0 .LBE123
     /tmp/ccrAem8Q.s:820    .text:00000000000004f8 .LBE140
     /tmp/ccrAem8Q.s:842    .text:0000000000000520 .LBB152
     /tmp/ccrAem8Q.s:944    .text:00000000000005f0 .LBE152
     /tmp/ccrAem8Q.s:1004   .text:000000000000061c .LBE164
     /tmp/ccrAem8Q.s:1031   .text:0000000000000650 .LBB176
     /tmp/ccrAem8Q.s:1135   .text:0000000000000720 .LBE176
     /tmp/ccrAem8Q.s:361    .gcc_except_table:0000000000000000 .LLSDA33
GAS LISTING /tmp/ccrAem8Q.s 			page 41


     /tmp/ccrAem8Q.s:753    .gcc_except_table:000000000000005f .LLSDA34
     /tmp/ccrAem8Q.s:948    .gcc_except_table:00000000000000be .LLSDA35
     /tmp/ccrAem8Q.s:1139   .gcc_except_table:00000000000000e9 .LLSDA36

UNDEFINED SYMBOLS
_ZN3TCB7runningE
_Z8sem_waitP4_sem
_Znwm
_Z8sem_openPP4_semj
_ZdlPv
_Unwind_Resume
CONSOLE_RX_DATA
_ZN12BufferKernel3putEc
CONSOLE_STATUS
__gxx_personality_v0
_ZN12BufferKernel3getEv
CONSOLE_TX_DATA
