GAS LISTING /tmp/ccl2ex93.s 			page 1


   1              		.file	"list.cpp"
   2              		.option pic
   3              		.option norelax
   4              		.text
   5              	.Ltext0:
   6              		.align	2
   7              		.globl	_ZN4List7addLastEP3TCB
   9              	_ZN4List7addLastEP3TCB:
  10              	.LFB23:
  11              		.file 1 "src/list.cpp"
   1:src/list.cpp  **** //
   2:src/list.cpp  **** // Created by os on 6/26/23.
   3:src/list.cpp  **** //
   4:src/list.cpp  **** 
   5:src/list.cpp  **** #include "../h/list.hpp"
   6:src/list.cpp  **** #include "../h/TCB.hpp"
   7:src/list.cpp  **** 
   8:src/list.cpp  **** void List::addLast(TCB* data)
   9:src/list.cpp  **** {
  12              		.loc 1 9 1
  13              		.cfi_startproc
  14              	.LVL0:
  15 0000 130101FF 		addi	sp,sp,-16
  16              		.cfi_def_cfa_offset 16
  17 0004 23348100 		sd	s0,8(sp)
  18              		.cfi_offset 8, -8
  19 0008 13040101 		addi	s0,sp,16
  20              		.cfi_def_cfa 8, 0
  10:src/list.cpp  ****     data->next = 0;
  21              		.loc 1 10 5
  22              		.loc 1 10 16 is_stmt 0
  23 000c 23B00500 		sd	zero,0(a1)
  11:src/list.cpp  ****     if (tail)
  24              		.loc 1 11 5 is_stmt 1
  25              		.loc 1 11 9 is_stmt 0
  26 0010 83378500 		ld	a5,8(a0)
  27              		.loc 1 11 5
  28 0014 638C0700 		beqz	a5,.L2
  12:src/list.cpp  ****     {
  13:src/list.cpp  ****         tail->next = data;
  29              		.loc 1 13 9 is_stmt 1
  30              		.loc 1 13 20 is_stmt 0
  31 0018 23B0B700 		sd	a1,0(a5)
  14:src/list.cpp  ****         tail = data;
  32              		.loc 1 14 9 is_stmt 1
  33              		.loc 1 14 14 is_stmt 0
  34 001c 2334B500 		sd	a1,8(a0)
  35              	.L1:
  15:src/list.cpp  ****     } else head = tail = data;
  16:src/list.cpp  **** 
  17:src/list.cpp  **** }
  36              		.loc 1 17 1
  37 0020 03348100 		ld	s0,8(sp)
  38              		.cfi_remember_state
  39              		.cfi_restore 8
  40              		.cfi_def_cfa 2, 16
  41 0024 13010101 		addi	sp,sp,16
GAS LISTING /tmp/ccl2ex93.s 			page 2


  42              		.cfi_def_cfa_offset 0
  43 0028 67800000 		jr	ra
  44              	.L2:
  45              		.cfi_restore_state
  15:src/list.cpp  ****     } else head = tail = data;
  46              		.loc 1 15 12 is_stmt 1
  15:src/list.cpp  ****     } else head = tail = data;
  47              		.loc 1 15 24 is_stmt 0
  48 002c 2334B500 		sd	a1,8(a0)
  15:src/list.cpp  ****     } else head = tail = data;
  49              		.loc 1 15 17
  50 0030 2330B500 		sd	a1,0(a0)
  51              		.loc 1 17 1
  52 0034 6FF0DFFE 		j	.L1
  53              		.cfi_endproc
  54              	.LFE23:
  56              		.align	2
  57              		.globl	_ZN4List11removeFirstEv
  59              	_ZN4List11removeFirstEv:
  60              	.LFB24:
  18:src/list.cpp  **** 
  19:src/list.cpp  **** TCB* List::removeFirst()
  20:src/list.cpp  **** {
  61              		.loc 1 20 1 is_stmt 1
  62              		.cfi_startproc
  63              	.LVL1:
  64 0038 130101FF 		addi	sp,sp,-16
  65              		.cfi_def_cfa_offset 16
  66 003c 23348100 		sd	s0,8(sp)
  67              		.cfi_offset 8, -8
  68 0040 13040101 		addi	s0,sp,16
  69              		.cfi_def_cfa 8, 0
  70 0044 93070500 		mv	a5,a0
  21:src/list.cpp  ****     if (!head) return 0;
  71              		.loc 1 21 5
  72              		.loc 1 21 10 is_stmt 0
  73 0048 03350500 		ld	a0,0(a0)
  74              	.LVL2:
  75              		.loc 1 21 5
  76 004c 63080500 		beqz	a0,.L5
  22:src/list.cpp  **** 
  23:src/list.cpp  ****     TCB* elem = head;
  77              		.loc 1 23 5 is_stmt 1
  78              	.LVL3:
  24:src/list.cpp  ****     head = head->next;
  79              		.loc 1 24 5
  80              		.loc 1 24 18 is_stmt 0
  81 0050 03370500 		ld	a4,0(a0)
  82              		.loc 1 24 10
  83 0054 23B0E700 		sd	a4,0(a5)
  25:src/list.cpp  ****     if (!head) tail = 0;
  84              		.loc 1 25 5 is_stmt 1
  85 0058 63080700 		beqz	a4,.L8
  86              	.LVL4:
  87              	.L5:
  26:src/list.cpp  **** 
  27:src/list.cpp  ****     return elem;
GAS LISTING /tmp/ccl2ex93.s 			page 3


  28:src/list.cpp  **** }...
  88              		.loc 1 28 1 is_stmt 0
  89 005c 03348100 		ld	s0,8(sp)
  90              		.cfi_remember_state
  91              		.cfi_restore 8
  92              		.cfi_def_cfa 2, 16
  93 0060 13010101 		addi	sp,sp,16
  94              		.cfi_def_cfa_offset 0
  95 0064 67800000 		jr	ra
  96              	.LVL5:
  97              	.L8:
  98              		.cfi_restore_state
  25:src/list.cpp  ****     if (!head) tail = 0;
  99              		.loc 1 25 16 is_stmt 1 discriminator 1
  25:src/list.cpp  ****     if (!head) tail = 0;
 100              		.loc 1 25 21 is_stmt 0 discriminator 1
 101 0068 23B40700 		sd	zero,8(a5)
 102 006c 6FF01FFF 		j	.L5
 103              		.cfi_endproc
 104              	.LFE24:
 106              	.Letext0:
 107              		.file 2 "src/../h/list.hpp"
 108              		.file 3 "src/../h/TCB.hpp"
 109              		.file 4 "src/../h/../lib/hw.h"
 110              		.file 5 "src/../h/syscall_c.hpp"
GAS LISTING /tmp/ccl2ex93.s 			page 4


DEFINED SYMBOLS
                            *ABS*:0000000000000000 list.cpp
     /tmp/ccl2ex93.s:9      .text:0000000000000000 _ZN4List7addLastEP3TCB
     /tmp/ccl2ex93.s:13     .text:0000000000000000 .L0 
     /tmp/ccl2ex93.s:15     .text:0000000000000000 .L0 
     /tmp/ccl2ex93.s:16     .text:0000000000000004 .L0 
     /tmp/ccl2ex93.s:18     .text:0000000000000008 .L0 
     /tmp/ccl2ex93.s:20     .text:000000000000000c .L0 
     /tmp/ccl2ex93.s:22     .text:000000000000000c .L0 
     /tmp/ccl2ex93.s:23     .text:000000000000000c .L0 
     /tmp/ccl2ex93.s:25     .text:0000000000000010 .L0 
     /tmp/ccl2ex93.s:26     .text:0000000000000010 .L0 
     /tmp/ccl2ex93.s:28     .text:0000000000000014 .L0 
     /tmp/ccl2ex93.s:30     .text:0000000000000018 .L0 
     /tmp/ccl2ex93.s:31     .text:0000000000000018 .L0 
     /tmp/ccl2ex93.s:33     .text:000000000000001c .L0 
     /tmp/ccl2ex93.s:34     .text:000000000000001c .L0 
     /tmp/ccl2ex93.s:37     .text:0000000000000020 .L0 
     /tmp/ccl2ex93.s:38     .text:0000000000000024 .L0 
     /tmp/ccl2ex93.s:39     .text:0000000000000024 .L0 
     /tmp/ccl2ex93.s:40     .text:0000000000000024 .L0 
     /tmp/ccl2ex93.s:42     .text:0000000000000028 .L0 
     /tmp/ccl2ex93.s:45     .text:000000000000002c .L0 
     /tmp/ccl2ex93.s:47     .text:000000000000002c .L0 
     /tmp/ccl2ex93.s:48     .text:000000000000002c .L0 
     /tmp/ccl2ex93.s:50     .text:0000000000000030 .L0 
     /tmp/ccl2ex93.s:52     .text:0000000000000034 .L0 
     /tmp/ccl2ex93.s:53     .text:0000000000000038 .L0 
     /tmp/ccl2ex93.s:59     .text:0000000000000038 _ZN4List11removeFirstEv
     /tmp/ccl2ex93.s:62     .text:0000000000000038 .L0 
     /tmp/ccl2ex93.s:64     .text:0000000000000038 .L0 
     /tmp/ccl2ex93.s:65     .text:000000000000003c .L0 
     /tmp/ccl2ex93.s:67     .text:0000000000000040 .L0 
     /tmp/ccl2ex93.s:69     .text:0000000000000044 .L0 
     /tmp/ccl2ex93.s:72     .text:0000000000000048 .L0 
     /tmp/ccl2ex93.s:73     .text:0000000000000048 .L0 
     /tmp/ccl2ex93.s:76     .text:000000000000004c .L0 
     /tmp/ccl2ex93.s:79     .text:0000000000000050 .L0 
     /tmp/ccl2ex93.s:80     .text:0000000000000050 .L0 
     /tmp/ccl2ex93.s:81     .text:0000000000000050 .L0 
     /tmp/ccl2ex93.s:83     .text:0000000000000054 .L0 
     /tmp/ccl2ex93.s:85     .text:0000000000000058 .L0 
     /tmp/ccl2ex93.s:89     .text:000000000000005c .L0 
     /tmp/ccl2ex93.s:90     .text:0000000000000060 .L0 
     /tmp/ccl2ex93.s:91     .text:0000000000000060 .L0 
     /tmp/ccl2ex93.s:92     .text:0000000000000060 .L0 
     /tmp/ccl2ex93.s:94     .text:0000000000000064 .L0 
     /tmp/ccl2ex93.s:98     .text:0000000000000068 .L0 
     /tmp/ccl2ex93.s:100    .text:0000000000000068 .L0 
     /tmp/ccl2ex93.s:101    .text:0000000000000068 .L0 
     /tmp/ccl2ex93.s:103    .text:0000000000000070 .L0 
     /tmp/ccl2ex93.s:111    .text:0000000000000070 .L0 
     /tmp/ccl2ex93.s:44     .text:000000000000002c .L2
     /tmp/ccl2ex93.s:35     .text:0000000000000020 .L1
     /tmp/ccl2ex93.s:87     .text:000000000000005c .L5
     /tmp/ccl2ex93.s:97     .text:0000000000000068 .L8
     /tmp/ccl2ex93.s:879    .debug_abbrev:0000000000000000 .Ldebug_abbrev0
GAS LISTING /tmp/ccl2ex93.s 			page 5


     /tmp/ccl2ex93.s:1892   .debug_str:00000000000004b8 .LASF90
     /tmp/ccl2ex93.s:1918   .debug_str:0000000000000655 .LASF91
     /tmp/ccl2ex93.s:1856   .debug_str:00000000000003a6 .LASF92
     /tmp/ccl2ex93.s:5      .text:0000000000000000 .Ltext0
     /tmp/ccl2ex93.s:106    .text:0000000000000070 .Letext0
     /tmp/ccl2ex93.s:1716   .debug_line:0000000000000000 .Ldebug_line0
     /tmp/ccl2ex93.s:1794   .debug_str:0000000000000221 .LASF2
     /tmp/ccl2ex93.s:1758   .debug_str:0000000000000122 .LASF0
     /tmp/ccl2ex93.s:1826   .debug_str:00000000000002e3 .LASF1
     /tmp/ccl2ex93.s:1764   .debug_str:0000000000000143 .LASF4
     /tmp/ccl2ex93.s:1860   .debug_str:00000000000003e5 .LASF17
     /tmp/ccl2ex93.s:1836   .debug_str:0000000000000326 .LASF93
     /tmp/ccl2ex93.s:1752   .debug_str:00000000000000ec .LASF94
     /tmp/ccl2ex93.s:1746   .debug_str:00000000000000c0 .LASF3
     /tmp/ccl2ex93.s:1900   .debug_str:00000000000005a2 .LASF5
     /tmp/ccl2ex93.s:1894   .debug_str:000000000000057c .LASF6
     /tmp/ccl2ex93.s:1908   .debug_str:00000000000005de .LASF7
     /tmp/ccl2ex93.s:1786   .debug_str:00000000000001d1 .LASF95
     /tmp/ccl2ex93.s:1890   .debug_str:00000000000004af .LASF8
     /tmp/ccl2ex93.s:1862   .debug_str:00000000000003f5 .LASF9
     /tmp/ccl2ex93.s:1798   .debug_str:0000000000000237 .LASF10
     /tmp/ccl2ex93.s:1728   .debug_str:0000000000000041 .LASF11
     /tmp/ccl2ex93.s:1726   .debug_str:0000000000000039 .LASF96
     /tmp/ccl2ex93.s:1920   .debug_str:0000000000000662 .LASF67
     /tmp/ccl2ex93.s:1808   .debug_str:000000000000025c .LASF12
     /tmp/ccl2ex93.s:1910   .debug_str:00000000000005f6 .LASF13
     /tmp/ccl2ex93.s:1736   .debug_str:0000000000000070 .LASF14
     /tmp/ccl2ex93.s:1850   .debug_str:0000000000000381 .LASF15
     /tmp/ccl2ex93.s:1884   .debug_str:000000000000048f .LASF16
     /tmp/ccl2ex93.s:1782   .debug_str:00000000000001ac .LASF18
     /tmp/ccl2ex93.s:1830   .debug_str:00000000000002f6 .LASF19
     /tmp/ccl2ex93.s:1790   .debug_str:00000000000001e2 .LASF20
     /tmp/ccl2ex93.s:1724   .debug_str:000000000000002f .LASF21
     /tmp/ccl2ex93.s:1812   .debug_str:000000000000027a .LASF22
     /tmp/ccl2ex93.s:1800   .debug_str:000000000000023f .LASF23
     /tmp/ccl2ex93.s:1820   .debug_str:00000000000002ad .LASF24
     /tmp/ccl2ex93.s:1898   .debug_str:0000000000000597 .LASF25
     /tmp/ccl2ex93.s:1760   .debug_str:0000000000000127 .LASF26
     /tmp/ccl2ex93.s:1766   .debug_str:0000000000000150 .LASF27
     /tmp/ccl2ex93.s:1774   .debug_str:000000000000017e .LASF28
     /tmp/ccl2ex93.s:1780   .debug_str:00000000000001a2 .LASF29
     /tmp/ccl2ex93.s:1922   .debug_str:0000000000000667 .LASF30
     /tmp/ccl2ex93.s:1744   .debug_str:00000000000000b3 .LASF31
     /tmp/ccl2ex93.s:1738   .debug_str:0000000000000075 .LASF32
     /tmp/ccl2ex93.s:1882   .debug_str:0000000000000482 .LASF33
     /tmp/ccl2ex93.s:1750   .debug_str:00000000000000d4 .LASF34
     /tmp/ccl2ex93.s:1832   .debug_str:0000000000000302 .LASF35
     /tmp/ccl2ex93.s:1754   .debug_str:00000000000000fc .LASF36
     /tmp/ccl2ex93.s:1866   .debug_str:000000000000040c .LASF37
     /tmp/ccl2ex93.s:1880   .debug_str:0000000000000463 .LASF38
     /tmp/ccl2ex93.s:1822   .debug_str:00000000000002c3 .LASF39
     /tmp/ccl2ex93.s:1732   .debug_str:0000000000000050 .LASF40
     /tmp/ccl2ex93.s:1904   .debug_str:00000000000005c5 .LASF41
     /tmp/ccl2ex93.s:1772   .debug_str:000000000000016a .LASF42
     /tmp/ccl2ex93.s:1902   .debug_str:00000000000005b9 .LASF43
     /tmp/ccl2ex93.s:1742   .debug_str:000000000000009c .LASF44
     /tmp/ccl2ex93.s:1770   .debug_str:0000000000000164 .LASF45
GAS LISTING /tmp/ccl2ex93.s 			page 6


     /tmp/ccl2ex93.s:1834   .debug_str:0000000000000316 .LASF47
     /tmp/ccl2ex93.s:1886   .debug_str:000000000000049a .LASF60
     /tmp/ccl2ex93.s:1868   .debug_str:0000000000000420 .LASF97
     /tmp/ccl2ex93.s:1818   .debug_str:00000000000002a8 .LASF46
     /tmp/ccl2ex93.s:1740   .debug_str:000000000000008d .LASF48
     /tmp/ccl2ex93.s:1768   .debug_str:000000000000015c .LASF98
     /tmp/ccl2ex93.s:1762   .debug_str:000000000000013e .LASF49
     /tmp/ccl2ex93.s:1874   .debug_str:000000000000043c .LASF50
     /tmp/ccl2ex93.s:1804   .debug_str:000000000000024f .LASF51
     /tmp/ccl2ex93.s:1852   .debug_str:000000000000038a .LASF52
     /tmp/ccl2ex93.s:1848   .debug_str:000000000000037b .LASF53
     /tmp/ccl2ex93.s:1778   .debug_str:000000000000019a .LASF54
     /tmp/ccl2ex93.s:1730   .debug_str:000000000000004a .LASF55
     /tmp/ccl2ex93.s:1806   .debug_str:0000000000000254 .LASF56
     /tmp/ccl2ex93.s:1844   .debug_str:0000000000000367 .LASF57
     /tmp/ccl2ex93.s:1718   .debug_str:0000000000000000 .LASF58
     /tmp/ccl2ex93.s:1810   .debug_str:0000000000000269 .LASF59
     /tmp/ccl2ex93.s:1838   .debug_str:0000000000000330 .LASF99
     /tmp/ccl2ex93.s:1912   .debug_str:0000000000000618 .LASF100
     /tmp/ccl2ex93.s:1792   .debug_str:00000000000001f9 .LASF101
     /tmp/ccl2ex93.s:1816   .debug_str:000000000000029a .LASF61
     /tmp/ccl2ex93.s:1914   .debug_str:0000000000000626 .LASF63
     /tmp/ccl2ex93.s:1846   .debug_str:0000000000000372 .LASF62
     /tmp/ccl2ex93.s:1824   .debug_str:00000000000002d0 .LASF64
     /tmp/ccl2ex93.s:1788   .debug_str:00000000000001d7 .LASF65
     /tmp/ccl2ex93.s:1814   .debug_str:000000000000028f .LASF66
     /tmp/ccl2ex93.s:1796   .debug_str:0000000000000226 .LASF68
     /tmp/ccl2ex93.s:1842   .debug_str:000000000000035a .LASF69
     /tmp/ccl2ex93.s:1854   .debug_str:0000000000000393 .LASF70
     /tmp/ccl2ex93.s:1828   .debug_str:00000000000002e8 .LASF71
     /tmp/ccl2ex93.s:1870   .debug_str:0000000000000431 .LASF72
     /tmp/ccl2ex93.s:1756   .debug_str:000000000000011b .LASF73
     /tmp/ccl2ex93.s:1720   .debug_str:000000000000000d .LASF74
     /tmp/ccl2ex93.s:1734   .debug_str:0000000000000069 .LASF75
     /tmp/ccl2ex93.s:1858   .debug_str:00000000000003d2 .LASF76
     /tmp/ccl2ex93.s:1840   .debug_str:0000000000000347 .LASF77
     /tmp/ccl2ex93.s:1906   .debug_str:00000000000005ce .LASF78
     /tmp/ccl2ex93.s:1784   .debug_str:00000000000001c3 .LASF79
     /tmp/ccl2ex93.s:1864   .debug_str:00000000000003fd .LASF80
     /tmp/ccl2ex93.s:1896   .debug_str:0000000000000588 .LASF81
     /tmp/ccl2ex93.s:1888   .debug_str:000000000000049f .LASF82
     /tmp/ccl2ex93.s:1722   .debug_str:000000000000001f .LASF83
     /tmp/ccl2ex93.s:1748   .debug_str:00000000000000c8 .LASF84
     /tmp/ccl2ex93.s:1878   .debug_str:000000000000044d .LASF85
     /tmp/ccl2ex93.s:1916   .debug_str:000000000000063f .LASF86
     /tmp/ccl2ex93.s:1776   .debug_str:0000000000000195 .LASF87
     /tmp/ccl2ex93.s:60     .text:0000000000000038 .LFB24
     /tmp/ccl2ex93.s:104    .text:0000000000000070 .LFE24
     /tmp/ccl2ex93.s:1872   .debug_str:0000000000000437 .LASF89
     /tmp/ccl2ex93.s:1681   .debug_loc:0000000000000000 .LLST0
     /tmp/ccl2ex93.s:1802   .debug_str:000000000000024a .LASF88
     /tmp/ccl2ex93.s:1692   .debug_loc:0000000000000036 .LLST1
     /tmp/ccl2ex93.s:10     .text:0000000000000000 .LFB23
     /tmp/ccl2ex93.s:54     .text:0000000000000038 .LFE23
     /tmp/ccl2ex93.s:1876   .debug_str:0000000000000448 .LASF102
     /tmp/ccl2ex93.s:63     .text:0000000000000038 .LVL1
     /tmp/ccl2ex93.s:74     .text:000000000000004c .LVL2
GAS LISTING /tmp/ccl2ex93.s 			page 7


     /tmp/ccl2ex93.s:78     .text:0000000000000050 .LVL3
     /tmp/ccl2ex93.s:86     .text:000000000000005c .LVL4
     /tmp/ccl2ex93.s:96     .text:0000000000000068 .LVL5
     /tmp/ccl2ex93.s:112    .debug_info:0000000000000000 .Ldebug_info0

NO UNDEFINED SYMBOLS
