GAS LISTING /tmp/ccl2ex93.s 			page 1


   1              		.file	"list.cpp"
   2              		.option pic
   3              		.option norelax
   4              		.text
   5              	.Ltext0:
   6              		.align	2
   7              		.globl	_ZN4List7addLastEP3TCB
   9              	_ZN4List7addLastEP3TCB:
  10              	.LFB23:
  11              		.file 1 "src/list.cpp"
   1:src/list.cpp  **** //
   2:src/list.cpp  **** // Created by os on 6/26/23.
   3:src/list.cpp  **** //
   4:src/list.cpp  **** 
   5:src/list.cpp  **** #include "../h/list.hpp"
   6:src/list.cpp  **** #include "../h/TCB.hpp"
   7:src/list.cpp  **** 
   8:src/list.cpp  **** void List::addLast(TCB* data)
   9:src/list.cpp  **** {
  12              		.loc 1 9 1
  13              		.cfi_startproc
  14              	.LVL0:
  15 0000 130101FF 		addi	sp,sp,-16
  16              		.cfi_def_cfa_offset 16
  17 0004 23348100 		sd	s0,8(sp)
  18              		.cfi_offset 8, -8
  19 0008 13040101 		addi	s0,sp,16
  20              		.cfi_def_cfa 8, 0
  10:src/list.cpp  ****     data->next = 0;
  21              		.loc 1 10 5
  22              		.loc 1 10 16 is_stmt 0
  23 000c 23B00500 		sd	zero,0(a1)
  11:src/list.cpp  ****     if (tail)
  24              		.loc 1 11 5 is_stmt 1
  25              		.loc 1 11 9 is_stmt 0
  26 0010 83378500 		ld	a5,8(a0)
  27              		.loc 1 11 5
  28 0014 638C0700 		beqz	a5,.L2
  12:src/list.cpp  ****     {
  13:src/list.cpp  ****         tail->next = data;
  29              		.loc 1 13 9 is_stmt 1
  30              		.loc 1 13 20 is_stmt 0
  31 0018 23B0B700 		sd	a1,0(a5)
  14:src/list.cpp  ****         tail = data;
  32              		.loc 1 14 9 is_stmt 1
  33              		.loc 1 14 14 is_stmt 0
  34 001c 2334B500 		sd	a1,8(a0)
  35              	.L1:
  15:src/list.cpp  ****     } else head = tail = data;
  16:src/list.cpp  **** 
  17:src/list.cpp  **** }
  36              		.loc 1 17 1
  37 0020 03348100 		ld	s0,8(sp)
  38              		.cfi_remember_state
  39              		.cfi_restore 8
  40              		.cfi_def_cfa 2, 16
  41 0024 13010101 		addi	sp,sp,16
GAS LISTING /tmp/ccl2ex93.s 			page 2


  42              		.cfi_def_cfa_offset 0
  43 0028 67800000 		jr	ra
  44              	.L2:
  45              		.cfi_restore_state
  15:src/list.cpp  ****     } else head = tail = data;
  46              		.loc 1 15 12 is_stmt 1
  15:src/list.cpp  ****     } else head = tail = data;
  47              		.loc 1 15 24 is_stmt 0
  48 002c 2334B500 		sd	a1,8(a0)
  15:src/list.cpp  ****     } else head = tail = data;
  49              		.loc 1 15 17
  50 0030 2330B500 		sd	a1,0(a0)
  51              		.loc 1 17 1
  52 0034 6FF0DFFE 		j	.L1
  53              		.cfi_endproc
  54              	.LFE23:
  56              		.align	2
  57              		.globl	_ZN4List11removeFirstEv
  59              	_ZN4List11removeFirstEv:
  60              	.LFB24:
  18:src/list.cpp  **** 
  19:src/list.cpp  **** TCB* List::removeFirst()
  20:src/list.cpp  **** {
  61              		.loc 1 20 1 is_stmt 1
  62              		.cfi_startproc
  63              	.LVL1:
  64 0038 130101FF 		addi	sp,sp,-16
  65              		.cfi_def_cfa_offset 16
  66 003c 23348100 		sd	s0,8(sp)
  67              		.cfi_offset 8, -8
  68 0040 13040101 		addi	s0,sp,16
  69              		.cfi_def_cfa 8, 0
  70 0044 93070500 		mv	a5,a0
  21:src/list.cpp  ****     if (!head) return 0;
  71              		.loc 1 21 5
  72              		.loc 1 21 10 is_stmt 0
  73 0048 03350500 		ld	a0,0(a0)
  74              	.LVL2:
  75              		.loc 1 21 5
  76 004c 63080500 		beqz	a0,.L5
  22:src/list.cpp  **** 
  23:src/list.cpp  ****     TCB* elem = head;
  77              		.loc 1 23 5 is_stmt 1
  78              	.LVL3:
  24:src/list.cpp  ****     head = head->next;
  79              		.loc 1 24 5
  80              		.loc 1 24 18 is_stmt 0
  81 0050 03370500 		ld	a4,0(a0)
  82              		.loc 1 24 10
  83 0054 23B0E700 		sd	a4,0(a5)
  25:src/list.cpp  ****     if (!head) tail = 0;
  84              		.loc 1 25 5 is_stmt 1
  85 0058 63080700 		beqz	a4,.L8
  86              	.LVL4:
  87              	.L5:
  26:src/list.cpp  **** 
  27:src/list.cpp  ****     return elem;
GAS LISTING /tmp/ccl2ex93.s 			page 3


  28:src/list.cpp  **** }...
  88              		.loc 1 28 1 is_stmt 0
  89 005c 03348100 		ld	s0,8(sp)
  90              		.cfi_remember_state
  91              		.cfi_restore 8
  92              		.cfi_def_cfa 2, 16
  93 0060 13010101 		addi	sp,sp,16
  94              		.cfi_def_cfa_offset 0
  95 0064 67800000 		jr	ra
  96              	.LVL5:
  97              	.L8:
  98              		.cfi_restore_state
  25:src/list.cpp  ****     if (!head) tail = 0;
  99              		.loc 1 25 16 is_stmt 1 discriminator 1
  25:src/list.cpp  ****     if (!head) tail = 0;
 100              		.loc 1 25 21 is_stmt 0 discriminator 1
 101 0068 23B40700 		sd	zero,8(a5)
 102 006c 6FF01FFF 		j	.L5
 103              		.cfi_endproc
 104              	.LFE24:
 106              	.Letext0:
 107              		.file 2 "src/../h/list.hpp"
 108              		.file 3 "src/../h/TCB.hpp"
 109              		.file 4 "src/../h/../lib/hw.h"
 110              		.file 5 "src/../h/syscall_c.hpp"
GAS LISTING /tmp/ccl2ex93.s 			page 4

