GAS LISTING /tmp/ccREXWKp.s 			page 1


   1              		.file	"main.cpp"
   2              		.option pic
   3              		.option norelax
   4              		.text
   5              	.Ltext0:
   6              		.align	2
   7              		.globl	_Z10idleThreadPv
   9              	_Z10idleThreadPv:
  10              	.LFB57:
  11              		.file 1 "src/main.cpp"
   1:src/main.cpp  **** //
   2:src/main.cpp  **** // Created by os on 4/16/23.
   3:src/main.cpp  **** //
   4:src/main.cpp  **** 
   5:src/main.cpp  **** 
   6:src/main.cpp  **** #include "../lib/hw.h"
   7:src/main.cpp  **** #include "../h/syscall_c.hpp"
   8:src/main.cpp  **** #include "../h/TCB.hpp"
   9:src/main.cpp  **** #include "../h/riscv.hpp"
  10:src/main.cpp  **** 
  11:src/main.cpp  **** void idleThread (void*){
  12              		.loc 1 11 24
  13              		.cfi_startproc
  14 0000 130101FF 		addi	sp,sp,-16
  15              		.cfi_def_cfa_offset 16
  16 0004 23341100 		sd	ra,8(sp)
  17 0008 23308100 		sd	s0,0(sp)
  18              		.cfi_offset 1, -8
  19              		.cfi_offset 8, -16
  20 000c 13040101 		addi	s0,sp,16
  21              		.cfi_def_cfa 8, 0
  22              	.L2:
  12:src/main.cpp  ****     while(true)
  23              		.loc 1 12 5 discriminator 1
  13:src/main.cpp  ****         thread_dispatch();
  24              		.loc 1 13 9 discriminator 1
  25              		.loc 1 13 24 is_stmt 0 discriminator 1
  26 0010 97000000 		call	_Z15thread_dispatchv@plt
  26      E7800000 
  27              	.LVL0:
  12:src/main.cpp  ****     while(true)
  28              		.loc 1 12 5 is_stmt 1 discriminator 1
  29 0018 6FF09FFF 		j	.L2
  30              		.cfi_endproc
  31              	.LFE57:
  33              		.align	2
  34              		.globl	_Z15userMainWrapperPv
  36              	_Z15userMainWrapperPv:
  37              	.LFB58:
  14:src/main.cpp  **** }
  15:src/main.cpp  **** 
  16:src/main.cpp  **** void userMain();
  17:src/main.cpp  **** void userMainWrapper(void*){
  38              		.loc 1 17 28
  39              		.cfi_startproc
  40 001c 130101FF 		addi	sp,sp,-16
  41              		.cfi_def_cfa_offset 16
GAS LISTING /tmp/ccREXWKp.s 			page 2


  42 0020 23341100 		sd	ra,8(sp)
  43 0024 23308100 		sd	s0,0(sp)
  44              		.cfi_offset 1, -8
  45              		.cfi_offset 8, -16
  46 0028 13040101 		addi	s0,sp,16
  47              		.cfi_def_cfa 8, 0
  18:src/main.cpp  ****     userMain();
  48              		.loc 1 18 5
  49              		.loc 1 18 13 is_stmt 0
  50 002c 97000000 		call	_Z8userMainv@plt
  50      E7800000 
  51              	.LVL1:
  19:src/main.cpp  **** }
  52              		.loc 1 19 1
  53 0034 83308100 		ld	ra,8(sp)
  54              		.cfi_restore 1
  55 0038 03340100 		ld	s0,0(sp)
  56              		.cfi_restore 8
  57              		.cfi_def_cfa 2, 16
  58 003c 13010101 		addi	sp,sp,16
  59              		.cfi_def_cfa_offset 0
  60 0040 67800000 		jr	ra
  61              		.cfi_endproc
  62              	.LFE58:
  64              		.align	2
  65              		.globl	main
  67              	main:
  68              	.LFB59:
  20:src/main.cpp  **** 
  21:src/main.cpp  **** extern "C" void interruptVector();
  22:src/main.cpp  **** 
  23:src/main.cpp  **** int main(){
  69              		.loc 1 23 11 is_stmt 1
  70              		.cfi_startproc
  71 0044 130101FB 		addi	sp,sp,-80
  72              		.cfi_def_cfa_offset 80
  73 0048 23341104 		sd	ra,72(sp)
  74 004c 23308104 		sd	s0,64(sp)
  75 0050 233C9102 		sd	s1,56(sp)
  76              		.cfi_offset 1, -8
  77              		.cfi_offset 8, -16
  78              		.cfi_offset 9, -24
  79 0054 13040105 		addi	s0,sp,80
  80              		.cfi_def_cfa 8, 0
  24:src/main.cpp  ****     // Setting the interrupt subroutine.
  25:src/main.cpp  ****     riscv::w_stvec((uint64) &interruptVector|1UL);
  81              		.loc 1 25 5
  82              		.loc 1 25 19 is_stmt 0
  83 0058 97070000 		la	a5,interruptVector
  83      83B70700 
  84 0060 93E71700 		ori	a5,a5,1
  85              	.LVL2:
  86              	.LBB23:
  87              	.LBB24:
  88              		.file 2 "src/../h/riscv.hpp"
   1:src/../h/riscv.hpp **** //
   2:src/../h/riscv.hpp **** // Created by os on 5/21/23.
GAS LISTING /tmp/ccREXWKp.s 			page 3


   3:src/../h/riscv.hpp **** //
   4:src/../h/riscv.hpp **** 
   5:src/../h/riscv.hpp **** #ifndef PROJECT_BASE_V1_1_RISCV_HPP
   6:src/../h/riscv.hpp **** #define PROJECT_BASE_V1_1_RISCV_HPP
   7:src/../h/riscv.hpp **** 
   8:src/../h/riscv.hpp **** #include "../lib/hw.h"
   9:src/../h/riscv.hpp **** #include "../lib/mem.h"
  10:src/../h/riscv.hpp **** #include "TCB.hpp"
  11:src/../h/riscv.hpp **** #include "PrintKernel.hpp"
  12:src/../h/riscv.hpp **** #include "_sem.hpp"
  13:src/../h/riscv.hpp **** #include "sleeping.hpp"
  14:src/../h/riscv.hpp **** //registers: scause, spec, sstatus, stvec, sip, sie
  15:src/../h/riscv.hpp **** //Ideja preuzeta sa online vezbi
  16:src/../h/riscv.hpp **** class riscv{
  17:src/../h/riscv.hpp **** private:
  18:src/../h/riscv.hpp ****     static void handleSupervisorTrap();
  19:src/../h/riscv.hpp ****     static void timerInterruptHandler();
  20:src/../h/riscv.hpp ****     static void consoleInterruptHandler();
  21:src/../h/riscv.hpp **** public:
  22:src/../h/riscv.hpp **** 
  23:src/../h/riscv.hpp ****     // pop sstatus.spp and sstatus.spie bits
  24:src/../h/riscv.hpp ****     // has to be a non-inline function
  25:src/../h/riscv.hpp ****     static void popSppSpie();
  26:src/../h/riscv.hpp **** 
  27:src/../h/riscv.hpp ****     // skok u prekidnu rutinu
  28:src/../h/riscv.hpp ****     static void supervisorTrap();
  29:src/../h/riscv.hpp **** 
  30:src/../h/riscv.hpp ****     //read scause register
  31:src/../h/riscv.hpp ****     static uint64 r_scause(){
  32:src/../h/riscv.hpp ****         uint64 volatile scause;
  33:src/../h/riscv.hpp ****         __asm__ volatile("csrr %[scause], scause" : [scause] "=r"(scause));
  34:src/../h/riscv.hpp ****         return scause;
  35:src/../h/riscv.hpp ****     }
  36:src/../h/riscv.hpp ****     //write scause register
  37:src/../h/riscv.hpp ****     static void w_scause(uint64 scause){
  38:src/../h/riscv.hpp ****         __asm__ volatile("csrw scause, %[scause]": : [scause] "r"(scause));
  39:src/../h/riscv.hpp ****     }
  40:src/../h/riscv.hpp **** 
  41:src/../h/riscv.hpp ****     //read spec register
  42:src/../h/riscv.hpp ****     static uint64 r_sepc(){
  43:src/../h/riscv.hpp ****         uint64 volatile sepc;
  44:src/../h/riscv.hpp ****         __asm__ volatile("csrr %[sepc], sepc" : [sepc] "=r"(sepc));
  45:src/../h/riscv.hpp ****         return sepc;
  46:src/../h/riscv.hpp ****     }
  47:src/../h/riscv.hpp ****     //write spec register
  48:src/../h/riscv.hpp ****     static void w_sepc(uint64 sepc){
  49:src/../h/riscv.hpp ****         __asm__ volatile("csrw sepc, %[sepc]": : [sepc] "r"(sepc));
  50:src/../h/riscv.hpp ****     }
  51:src/../h/riscv.hpp **** 
  52:src/../h/riscv.hpp ****     enum BitMaskSstatus
  53:src/../h/riscv.hpp ****     {
  54:src/../h/riscv.hpp ****         SSTATUS_SIE = (1 << 1),
  55:src/../h/riscv.hpp ****         SSTATUS_SPIE = (1 << 5),
  56:src/../h/riscv.hpp ****         SSTATUS_SPP = (1 << 8),
  57:src/../h/riscv.hpp ****     };
  58:src/../h/riscv.hpp **** 
  59:src/../h/riscv.hpp ****     enum BitMaskSip
GAS LISTING /tmp/ccREXWKp.s 			page 4


  60:src/../h/riscv.hpp ****     {
  61:src/../h/riscv.hpp ****         SIP_SSIP = (1 << 1),
  62:src/../h/riscv.hpp ****         SIP_STIP = (1 << 5),
  63:src/../h/riscv.hpp ****         SIP_SEIP = (1 << 9),
  64:src/../h/riscv.hpp ****     };
  65:src/../h/riscv.hpp ****     //read sstatus register
  66:src/../h/riscv.hpp ****     static uint64 r_sstatus(){
  67:src/../h/riscv.hpp ****         uint64 volatile sstatus;
  68:src/../h/riscv.hpp ****         __asm__ volatile("csrr %[sstatus], sstatus" : [sstatus] "=r"(sstatus));
  69:src/../h/riscv.hpp ****         return sstatus;
  70:src/../h/riscv.hpp ****     }
  71:src/../h/riscv.hpp ****     //write sstatus register
  72:src/../h/riscv.hpp ****     static void w_sstatus(uint64 sstatus){
  73:src/../h/riscv.hpp ****         __asm__ volatile("csrw sstatus, %[sstatus]": : [sstatus] "r"(sstatus));
  74:src/../h/riscv.hpp ****     }
  75:src/../h/riscv.hpp **** 
  76:src/../h/riscv.hpp ****     //read stvec register
  77:src/../h/riscv.hpp ****     static uint64 r_stvec(){
  78:src/../h/riscv.hpp ****         uint64 volatile stvec;
  79:src/../h/riscv.hpp ****         __asm__ volatile("csrr %[stvec], stvec" : [stvec] "=r"(stvec));
  80:src/../h/riscv.hpp ****         return stvec;
  81:src/../h/riscv.hpp ****     }
  82:src/../h/riscv.hpp ****     //write stvec register
  83:src/../h/riscv.hpp ****     static void w_stvec(uint64 stvec){
  84:src/../h/riscv.hpp ****         __asm__ volatile("csrw stvec, %[stvec]": : [stvec] "r"(stvec));
  89              		.loc 2 84 9 is_stmt 1
  90              		.loc 2 84 71 is_stmt 0
  91              	#APP
  92              	# 84 "src/../h/riscv.hpp" 1
  85              	    }
  93              		csrw stvec, a5
  94              	# 0 "" 2
  95              	.LVL3:
  96              	#NO_APP
  97              	.LBE24:
  98              	.LBE23:
  26:src/main.cpp  ****     // Allowing interrupts
  27:src/main.cpp  ****     riscv::ms_sstatus(riscv::SSTATUS_SIE);
  99              		.loc 1 27 5 is_stmt 1
 100              	.LBB25:
 101              	.LBB26:
  86:src/../h/riscv.hpp **** 
  87:src/../h/riscv.hpp ****     //read sip register
  88:src/../h/riscv.hpp ****     static uint64 r_sip(){
  89:src/../h/riscv.hpp ****         uint64 volatile sip;
  90:src/../h/riscv.hpp ****         __asm__ volatile("csrr %[sip], sip" : [sip] "=r"(sip));
  91:src/../h/riscv.hpp ****         return sip;
  92:src/../h/riscv.hpp ****     }
  93:src/../h/riscv.hpp **** 
  94:src/../h/riscv.hpp ****     //write sip register
  95:src/../h/riscv.hpp ****     static void w_sip(uint64 sip){
  96:src/../h/riscv.hpp ****         __asm__ volatile("csrw sip, %[sip]": : [sip] "r"(sip));
  97:src/../h/riscv.hpp ****     }
  98:src/../h/riscv.hpp **** 
  99:src/../h/riscv.hpp ****     //read sie register
 100:src/../h/riscv.hpp ****     static uint64 r_sie(){
 101:src/../h/riscv.hpp ****         uint64 volatile sie;
GAS LISTING /tmp/ccREXWKp.s 			page 5


 102:src/../h/riscv.hpp ****         __asm__ volatile("csrr %[sie], sie" : [sie] "=r"(sie));
 103:src/../h/riscv.hpp ****         return sie;
 104:src/../h/riscv.hpp ****     }
 105:src/../h/riscv.hpp ****     //write sie register
 106:src/../h/riscv.hpp ****     static void w_sie(uint64 sie) {
 107:src/../h/riscv.hpp ****         __asm__ volatile("csrw sie, %[sie]": : [sie] "r"(sie));
 108:src/../h/riscv.hpp ****     }
 109:src/../h/riscv.hpp **** 
 110:src/../h/riscv.hpp ****     //read scratch register
 111:src/../h/riscv.hpp ****     static uint64 r_scratch(){
 112:src/../h/riscv.hpp ****         uint64 volatile scratch;
 113:src/../h/riscv.hpp ****         __asm__ volatile("csrr %[scratch], scratch" : [scratch] "=r"(scratch));
 114:src/../h/riscv.hpp ****         return scratch;
 115:src/../h/riscv.hpp ****     }
 116:src/../h/riscv.hpp **** 
 117:src/../h/riscv.hpp ****     //write scratch register
 118:src/../h/riscv.hpp ****     static void w_scratch(uint64 scratch) {
 119:src/../h/riscv.hpp ****         __asm__ volatile("csrw scratch, %[scratch]": : [scratch] "r"(scratch));
 120:src/../h/riscv.hpp ****     }
 121:src/../h/riscv.hpp **** 
 122:src/../h/riscv.hpp ****     static void ms_sstatus(uint64 mask) { // mask set sstatus
 123:src/../h/riscv.hpp ****         __asm__ volatile("csrs sstatus, %[mask]"::[mask]"r"(mask));
 102              		.loc 2 123 9
 103              		.loc 2 123 67 is_stmt 0
 104 0068 93072000 		li	a5,2
 105              	#APP
 106              	# 123 "src/../h/riscv.hpp" 1
 124              	    }
 107              		csrs sstatus, a5
 108              	# 0 "" 2
 109              	.LVL4:
 110              	#NO_APP
 111              	.LBE26:
 112              	.LBE25:
  28:src/main.cpp  ****     TCB* thread0; // main thread
 113              		.loc 1 28 5 is_stmt 1
  29:src/main.cpp  ****     // Because the body is nullptr, this thread will not be put in the scheduler in the constructor
  30:src/main.cpp  ****     thread_create(&thread0, nullptr, nullptr);
 114              		.loc 1 30 5
 115              		.loc 1 30 18 is_stmt 0
 116 0070 13060000 		li	a2,0
 117 0074 93050000 		li	a1,0
 118 0078 130584FD 		addi	a0,s0,-40
 119 007c 97000000 		call	_Z13thread_createPP3TCBPFvPvES2_@plt
 119      E7800000 
 120              	.LVL5:
  31:src/main.cpp  ****     TCB::running = thread0;
 121              		.loc 1 31 5 is_stmt 1
 122              		.loc 1 31 18 is_stmt 0
 123 0084 833784FD 		ld	a5,-40(s0)
 124 0088 17070000 		la	a4,_ZN3TCB7runningE
 124      03370700 
 125 0090 2330F700 		sd	a5,0(a4)
  32:src/main.cpp  ****     TCB::running->setSystemAccessFlag();
 126              		.loc 1 32 5 is_stmt 1
 127              	.LVL6:
 128              	.LBB27:
GAS LISTING /tmp/ccREXWKp.s 			page 6


 129              	.LBB28:
 130              		.file 3 "src/../h/TCB.hpp"
   1:src/../h/TCB.hpp **** //
   2:src/../h/TCB.hpp **** // Created by os on 6/20/23.
   3:src/../h/TCB.hpp **** //
   4:src/../h/TCB.hpp **** 
   5:src/../h/TCB.hpp **** #ifndef PROJECT_BASE_V1_1_TCB_HPP
   6:src/../h/TCB.hpp **** #define PROJECT_BASE_V1_1_TCB_HPP
   7:src/../h/TCB.hpp **** 
   8:src/../h/TCB.hpp **** #include "../lib/hw.h"
   9:src/../h/TCB.hpp **** #include "syscall_c.hpp"
  10:src/../h/TCB.hpp **** #include "../h/Scheduler.hpp"
  11:src/../h/TCB.hpp **** #include "list.hpp"
  12:src/../h/TCB.hpp **** 
  13:src/../h/TCB.hpp **** // ideja za klasu preuzeta sa vezbi
  14:src/../h/TCB.hpp **** class TCB {
  15:src/../h/TCB.hpp **** public:
  16:src/../h/TCB.hpp ****     TCB* next;
  17:src/../h/TCB.hpp ****     enum State{FINISHED, RUNNING, BLOCKED, SLEEPING};
  18:src/../h/TCB.hpp ****     using Body = void(*)(void*);
  19:src/../h/TCB.hpp ****     using Argument = void*;
  20:src/../h/TCB.hpp **** 
  21:src/../h/TCB.hpp ****     static TCB* createThread(Body body, Argument argument, uint8* st);
  22:src/../h/TCB.hpp **** 
  23:src/../h/TCB.hpp ****     // Finished
  24:src/../h/TCB.hpp ****     bool isFinished() const{ return this->state == FINISHED; }
  25:src/../h/TCB.hpp ****     void setFinished(bool finished){ this->state = finished? FINISHED:RUNNING; }
  26:src/../h/TCB.hpp **** 
  27:src/../h/TCB.hpp ****     // Blocked
  28:src/../h/TCB.hpp ****     bool isBlocked() const { return this->state == BLOCKED; }
  29:src/../h/TCB.hpp ****     void setBlocked(bool blocked) { this->state = blocked?BLOCKED:RUNNING; }
  30:src/../h/TCB.hpp **** 
  31:src/../h/TCB.hpp ****     // Sleeping
  32:src/../h/TCB.hpp ****     bool isSleeping() const { return this->state == SLEEPING;}
  33:src/../h/TCB.hpp ****     void setSleeping(bool sleeping) { this->state = sleeping?SLEEPING:RUNNING; }
  34:src/../h/TCB.hpp **** 
  35:src/../h/TCB.hpp ****     // Running
  36:src/../h/TCB.hpp ****     bool isRunning(){ return this->state == RUNNING;}
  37:src/../h/TCB.hpp **** 
  38:src/../h/TCB.hpp ****     // Sleep time
  39:src/../h/TCB.hpp ****     void setSleepTime(int time1) { this->sleep_time = time1; }
  40:src/../h/TCB.hpp ****     int getSleepTime() { return this->sleep_time; }
  41:src/../h/TCB.hpp **** 
  42:src/../h/TCB.hpp ****     // System access
  43:src/../h/TCB.hpp ****     void setSystemAccessFlag(){ this->systemAccessFlag = true; }
 131              		.loc 3 43 33
 132              		.loc 3 43 56 is_stmt 0
 133 0094 13071000 		li	a4,1
 134 0098 238CE704 		sb	a4,88(a5)
 135              	.LVL7:
 136              	.LBE28:
 137              	.LBE27:
  33:src/main.cpp  ****     TCB* thread1;
 138              		.loc 1 33 5 is_stmt 1
  34:src/main.cpp  ****     thread_create(&thread1, &ConsoleKernel::putCharKernel,0);
 139              		.loc 1 34 5
 140              		.loc 1 34 18 is_stmt 0
GAS LISTING /tmp/ccREXWKp.s 			page 7


 141 009c 13060000 		li	a2,0
 142 00a0 97050000 		la	a1,_ZN13ConsoleKernel13putCharKernelEPv
 142      83B50500 
 143 00a8 130504FD 		addi	a0,s0,-48
 144 00ac 97000000 		call	_Z13thread_createPP3TCBPFvPvES2_@plt
 144      E7800000 
 145              	.LVL8:
  35:src/main.cpp  ****     TCB* thread2;
 146              		.loc 1 35 5 is_stmt 1
  36:src/main.cpp  ****     thread_create(&thread2,&ConsoleKernel::getCharKernel,0);
 147              		.loc 1 36 5
 148              		.loc 1 36 18 is_stmt 0
 149 00b4 13060000 		li	a2,0
 150 00b8 97050000 		la	a1,_ZN13ConsoleKernel13getCharKernelEPv
 150      83B50500 
 151 00c0 130584FC 		addi	a0,s0,-56
 152 00c4 97000000 		call	_Z13thread_createPP3TCBPFvPvES2_@plt
 152      E7800000 
 153              	.LVL9:
  37:src/main.cpp  ****     if(thread1); // prevents thread1 not used error
 154              		.loc 1 37 5 is_stmt 1
  38:src/main.cpp  ****     if(thread2); // prevents thread2 not used error
 155              		.loc 1 38 5
  39:src/main.cpp  ****     // idle thread
  40:src/main.cpp  ****     thread_t thread3;
 156              		.loc 1 40 5
  41:src/main.cpp  ****     thread_create(&thread3,&idleThread,nullptr);
 157              		.loc 1 41 5
 158              		.loc 1 41 18 is_stmt 0
 159 00cc 13060000 		li	a2,0
 160 00d0 97050000 		lla	a1,_Z10idleThreadPv
 160      93850500 
 161 00d8 130504FC 		addi	a0,s0,-64
 162 00dc 97000000 		call	_Z13thread_createPP3TCBPFvPvES2_@plt
 162      E7800000 
 163              	.LVL10:
  42:src/main.cpp  ****     if(thread3); // prevents thread3 not used error
 164              		.loc 1 42 5 is_stmt 1
  43:src/main.cpp  ****     // userMain thread
  44:src/main.cpp  ****     thread_t thread4;
 165              		.loc 1 44 5
  45:src/main.cpp  ****     thread_create(&thread4,&userMainWrapper,nullptr);
 166              		.loc 1 45 5
 167              		.loc 1 45 18 is_stmt 0
 168 00e4 13060000 		li	a2,0
 169 00e8 97050000 		lla	a1,_Z15userMainWrapperPv
 169      93850500 
 170 00f0 130584FB 		addi	a0,s0,-72
 171 00f4 97000000 		call	_Z13thread_createPP3TCBPFvPvES2_@plt
 171      E7800000 
 172              	.LVL11:
  46:src/main.cpp  ****     thread_join(thread4);
 173              		.loc 1 46 5 is_stmt 1
 174              		.loc 1 46 16 is_stmt 0
 175 00fc 033584FB 		ld	a0,-72(s0)
 176 0100 97000000 		call	_Z11thread_joinP3TCB@plt
 176      E7800000 
GAS LISTING /tmp/ccREXWKp.s 			page 8


 177              	.LVL12:
  47:src/main.cpp  **** 
  48:src/main.cpp  ****     delete thread0;
 178              		.loc 1 48 5 is_stmt 1
 179              		.loc 1 48 12 is_stmt 0
 180 0108 833484FD 		ld	s1,-40(s0)
 181              		.loc 1 48 19
 182 010c 63800402 		beqz	s1,.L7
 183              	.LVL13:
 184              	.LBB29:
 185              	.LBB30:
  44:src/../h/TCB.hpp ****     bool getSystemAccessFlag(){ return this->systemAccessFlag; }
  45:src/../h/TCB.hpp **** 
  46:src/../h/TCB.hpp ****     uint64 getTimeSlice() const{
  47:src/../h/TCB.hpp ****         return t_slice;
  48:src/../h/TCB.hpp ****     }
  49:src/../h/TCB.hpp **** 
  50:src/../h/TCB.hpp ****     uint8* getStack() const{
  51:src/../h/TCB.hpp ****         return this->stack;
  52:src/../h/TCB.hpp ****     }
  53:src/../h/TCB.hpp **** 
  54:src/../h/TCB.hpp ****     void* getArgument(){
  55:src/../h/TCB.hpp ****         return argument;
  56:src/../h/TCB.hpp ****     }
  57:src/../h/TCB.hpp **** 
  58:src/../h/TCB.hpp ****     static void yield();
  59:src/../h/TCB.hpp **** 
  60:src/../h/TCB.hpp ****     static void join(TCB* thread);
  61:src/../h/TCB.hpp **** 
  62:src/../h/TCB.hpp ****     static void exit();
  63:src/../h/TCB.hpp **** 
  64:src/../h/TCB.hpp ****     static TCB* running;
  65:src/../h/TCB.hpp **** 
  66:src/../h/TCB.hpp ****     ~TCB(){
  67:src/../h/TCB.hpp ****         if(stack)
 186              		.loc 3 67 9 is_stmt 1
 187              		.loc 3 67 12 is_stmt 0
 188 0110 03B58401 		ld	a0,24(s1)
 189              		.loc 3 67 9
 190 0114 63060500 		beqz	a0,.L8
  68:src/../h/TCB.hpp ****             delete[] stack;
 191              		.loc 3 68 13 is_stmt 1
 192              		.loc 3 68 22 is_stmt 0
 193 0118 97000000 		call	_ZdaPv@plt
 193      E7800000 
 194              	.LVL14:
 195              	.L8:
 196              	.LBE30:
 197              	.LBE29:
 198              		.loc 1 48 12
 199 0120 13850400 		mv	a0,s1
 200 0124 97000000 		call	_ZdlPv@plt
 200      E7800000 
 201              	.LVL15:
 202              	.L7:
  49:src/main.cpp  ****     delete thread1;
 203              		.loc 1 49 5 is_stmt 1
GAS LISTING /tmp/ccREXWKp.s 			page 9


 204              		.loc 1 49 12 is_stmt 0
 205 012c 833404FD 		ld	s1,-48(s0)
 206              		.loc 1 49 19
 207 0130 63800402 		beqz	s1,.L9
 208              	.LVL16:
 209              	.LBB31:
 210              	.LBB32:
  67:src/../h/TCB.hpp ****             delete[] stack;
 211              		.loc 3 67 9 is_stmt 1
  67:src/../h/TCB.hpp ****             delete[] stack;
 212              		.loc 3 67 12 is_stmt 0
 213 0134 03B58401 		ld	a0,24(s1)
  67:src/../h/TCB.hpp ****             delete[] stack;
 214              		.loc 3 67 9
 215 0138 63060500 		beqz	a0,.L10
 216              		.loc 3 68 13 is_stmt 1
 217              		.loc 3 68 22 is_stmt 0
 218 013c 97000000 		call	_ZdaPv@plt
 218      E7800000 
 219              	.LVL17:
 220              	.L10:
 221              	.LBE32:
 222              	.LBE31:
 223              		.loc 1 49 12
 224 0144 13850400 		mv	a0,s1
 225 0148 97000000 		call	_ZdlPv@plt
 225      E7800000 
 226              	.LVL18:
 227              	.L9:
  50:src/main.cpp  ****     delete thread2;
 228              		.loc 1 50 5 is_stmt 1
 229              		.loc 1 50 12 is_stmt 0
 230 0150 833484FC 		ld	s1,-56(s0)
 231              		.loc 1 50 19
 232 0154 63800402 		beqz	s1,.L11
 233              	.LVL19:
 234              	.LBB33:
 235              	.LBB34:
  67:src/../h/TCB.hpp ****             delete[] stack;
 236              		.loc 3 67 9 is_stmt 1
  67:src/../h/TCB.hpp ****             delete[] stack;
 237              		.loc 3 67 12 is_stmt 0
 238 0158 03B58401 		ld	a0,24(s1)
  67:src/../h/TCB.hpp ****             delete[] stack;
 239              		.loc 3 67 9
 240 015c 63060500 		beqz	a0,.L12
 241              		.loc 3 68 13 is_stmt 1
 242              		.loc 3 68 22 is_stmt 0
 243 0160 97000000 		call	_ZdaPv@plt
 243      E7800000 
 244              	.LVL20:
 245              	.L12:
 246              	.LBE34:
 247              	.LBE33:
 248              		.loc 1 50 12
 249 0168 13850400 		mv	a0,s1
 250 016c 97000000 		call	_ZdlPv@plt
GAS LISTING /tmp/ccREXWKp.s 			page 10


 250      E7800000 
 251              	.LVL21:
 252              	.L11:
  51:src/main.cpp  ****     delete thread3;
 253              		.loc 1 51 5 is_stmt 1
 254              		.loc 1 51 12 is_stmt 0
 255 0174 833404FC 		ld	s1,-64(s0)
 256              		.loc 1 51 19
 257 0178 63800402 		beqz	s1,.L13
 258              	.LVL22:
 259              	.LBB35:
 260              	.LBB36:
  67:src/../h/TCB.hpp ****             delete[] stack;
 261              		.loc 3 67 9 is_stmt 1
  67:src/../h/TCB.hpp ****             delete[] stack;
 262              		.loc 3 67 12 is_stmt 0
 263 017c 03B58401 		ld	a0,24(s1)
  67:src/../h/TCB.hpp ****             delete[] stack;
 264              		.loc 3 67 9
 265 0180 63060500 		beqz	a0,.L14
 266              		.loc 3 68 13 is_stmt 1
 267              		.loc 3 68 22 is_stmt 0
 268 0184 97000000 		call	_ZdaPv@plt
 268      E7800000 
 269              	.LVL23:
 270              	.L14:
 271              	.LBE36:
 272              	.LBE35:
 273              		.loc 1 51 12
 274 018c 13850400 		mv	a0,s1
 275 0190 97000000 		call	_ZdlPv@plt
 275      E7800000 
 276              	.LVL24:
 277              	.L13:
  52:src/main.cpp  ****     delete thread4;
 278              		.loc 1 52 5 is_stmt 1
 279              		.loc 1 52 12 is_stmt 0
 280 0198 833484FB 		ld	s1,-72(s0)
 281              		.loc 1 52 19
 282 019c 63800402 		beqz	s1,.L15
 283              	.LVL25:
 284              	.LBB37:
 285              	.LBB38:
  67:src/../h/TCB.hpp ****             delete[] stack;
 286              		.loc 3 67 9 is_stmt 1
  67:src/../h/TCB.hpp ****             delete[] stack;
 287              		.loc 3 67 12 is_stmt 0
 288 01a0 03B58401 		ld	a0,24(s1)
  67:src/../h/TCB.hpp ****             delete[] stack;
 289              		.loc 3 67 9
 290 01a4 63060500 		beqz	a0,.L16
 291              		.loc 3 68 13 is_stmt 1
 292              		.loc 3 68 22 is_stmt 0
 293 01a8 97000000 		call	_ZdaPv@plt
 293      E7800000 
 294              	.LVL26:
 295              	.L16:
GAS LISTING /tmp/ccREXWKp.s 			page 11


 296              	.LBE38:
 297              	.LBE37:
 298              		.loc 1 52 12
 299 01b0 13850400 		mv	a0,s1
 300 01b4 97000000 		call	_ZdlPv@plt
 300      E7800000 
 301              	.LVL27:
 302              	.L15:
  53:src/main.cpp  **** 
  54:src/main.cpp  ****     return 0;
 303              		.loc 1 54 5 is_stmt 1
  55:src/main.cpp  **** }...
 304              		.loc 1 55 1 is_stmt 0
 305 01bc 13050000 		li	a0,0
 306 01c0 83308104 		ld	ra,72(sp)
 307              		.cfi_restore 1
 308 01c4 03340104 		ld	s0,64(sp)
 309              		.cfi_restore 8
 310              		.cfi_def_cfa 2, 80
 311 01c8 83348103 		ld	s1,56(sp)
 312              		.cfi_restore 9
 313 01cc 13010105 		addi	sp,sp,80
 314              		.cfi_def_cfa_offset 0
 315 01d0 67800000 		jr	ra
 316              		.cfi_endproc
 317              	.LFE59:
 319              	.Letext0:
 320              		.file 4 "src/../lib/hw.h"
 321              		.file 5 "src/../h/syscall_c.hpp"
 322              		.file 6 "src/../h/list.hpp"
GAS LISTING /tmp/ccREXWKp.s 			page 12

