GAS LISTING /tmp/cc7i3pbr.s 			page 1


   1              		.file	"sleeping.cpp"
   2              		.option pic
   3              		.option norelax
   4              		.text
   5              	.Ltext0:
   6              		.align	2
   7              		.globl	_ZN8sleeping3putEP3TCBi
   9              	_ZN8sleeping3putEP3TCBi:
  10              	.LFB23:
  11              		.file 1 "src/sleeping.cpp"
   1:src/sleeping.cpp **** //
   2:src/sleeping.cpp **** // Created by os on 6/23/23.
   3:src/sleeping.cpp **** //
   4:src/sleeping.cpp **** 
   5:src/sleeping.cpp **** 
   6:src/sleeping.cpp **** #include "../h/sleeping.hpp"
   7:src/sleeping.cpp **** #include "../h/TCB.hpp"
   8:src/sleeping.cpp **** TCB* sleeping::head = nullptr;
   9:src/sleeping.cpp **** 
  10:src/sleeping.cpp **** int sleeping::put(TCB *thrd, int sleep_time)
  11:src/sleeping.cpp **** {
  12              		.loc 1 11 1
  13              		.cfi_startproc
  14              	.LVL0:
  15 0000 130101FF 		addi	sp,sp,-16
  16              		.cfi_def_cfa_offset 16
  17 0004 23348100 		sd	s0,8(sp)
  18              		.cfi_offset 8, -8
  19 0008 13040101 		addi	s0,sp,16
  20              		.cfi_def_cfa 8, 0
  12:src/sleeping.cpp ****     // Exceptional situation check
  13:src/sleeping.cpp ****     if(sleep_time < 0) return -1;
  21              		.loc 1 13 5
  22 000c 63CA0508 		bltz	a1,.L8
  14:src/sleeping.cpp ****     if(thrd == nullptr) return -1;
  23              		.loc 1 14 5
  24 0010 630C0508 		beqz	a0,.L9
  15:src/sleeping.cpp ****     if(sleep_time == 0) return 0;
  25              		.loc 1 15 5
  26 0014 638E0508 		beqz	a1,.L10
  16:src/sleeping.cpp **** 
  17:src/sleeping.cpp ****     // Initialize data
  18:src/sleeping.cpp ****     thrd->setSleeping(true);
  27              		.loc 1 18 5
  28              	.LVL1:
  29              	.LBB22:
  30              	.LBB23:
  31              		.file 2 "src/../h/TCB.hpp"
   1:src/../h/TCB.hpp **** //
   2:src/../h/TCB.hpp **** // Created by os on 6/20/23.
   3:src/../h/TCB.hpp **** //
   4:src/../h/TCB.hpp **** 
   5:src/../h/TCB.hpp **** #ifndef PROJECT_BASE_V1_1_TCB_HPP
   6:src/../h/TCB.hpp **** #define PROJECT_BASE_V1_1_TCB_HPP
   7:src/../h/TCB.hpp **** 
   8:src/../h/TCB.hpp **** #include "../lib/hw.h"
   9:src/../h/TCB.hpp **** #include "syscall_c.hpp"
GAS LISTING /tmp/cc7i3pbr.s 			page 2


  10:src/../h/TCB.hpp **** #include "../h/Scheduler.hpp"
  11:src/../h/TCB.hpp **** #include "list.hpp"
  12:src/../h/TCB.hpp **** 
  13:src/../h/TCB.hpp **** // ideja za klasu preuzeta sa vezbi
  14:src/../h/TCB.hpp **** class TCB {
  15:src/../h/TCB.hpp **** public:
  16:src/../h/TCB.hpp ****     TCB* next;
  17:src/../h/TCB.hpp ****     enum State{FINISHED, RUNNING, BLOCKED, SLEEPING};
  18:src/../h/TCB.hpp ****     using Body = void(*)(void*);
  19:src/../h/TCB.hpp ****     using Argument = void*;
  20:src/../h/TCB.hpp **** 
  21:src/../h/TCB.hpp ****     static TCB* createThread(Body body, Argument argument, uint8* st);
  22:src/../h/TCB.hpp **** 
  23:src/../h/TCB.hpp ****     // Finished
  24:src/../h/TCB.hpp ****     bool isFinished() const{ return this->state == FINISHED; }
  25:src/../h/TCB.hpp ****     void setFinished(bool finished){ this->state = finished? FINISHED:RUNNING; }
  26:src/../h/TCB.hpp **** 
  27:src/../h/TCB.hpp ****     // Blocked
  28:src/../h/TCB.hpp ****     bool isBlocked() const { return this->state == BLOCKED; }
  29:src/../h/TCB.hpp ****     void setBlocked(bool blocked) { this->state = blocked?BLOCKED:RUNNING; }
  30:src/../h/TCB.hpp **** 
  31:src/../h/TCB.hpp ****     // Sleeping
  32:src/../h/TCB.hpp ****     bool isSleeping() const { return this->state == SLEEPING;}
  33:src/../h/TCB.hpp ****     void setSleeping(bool sleeping) { this->state = sleeping?SLEEPING:RUNNING; }
  32              		.loc 2 33 39
  33              		.loc 2 33 51 is_stmt 0
  34 0018 93073000 		li	a5,3
  35 001c 2324F502 		sw	a5,40(a0)
  36              	.LVL2:
  37              	.LBE23:
  38              	.LBE22:
  19:src/sleeping.cpp ****     thrd->next = nullptr;
  39              		.loc 1 19 5 is_stmt 1
  40              		.loc 1 19 16 is_stmt 0
  41 0020 23300500 		sd	zero,0(a0)
  20:src/sleeping.cpp **** 
  21:src/sleeping.cpp ****     // Check if list is empty
  22:src/sleeping.cpp ****     if(head == nullptr){
  42              		.loc 1 22 5 is_stmt 1
  43              		.loc 1 22 13 is_stmt 0
  44 0024 97070000 		ld	a5,.LANCHOR0
  44      83B70700 
  45              		.loc 1 22 5
  46 002c 63820702 		beqz	a5,.L13
  23:src/sleeping.cpp ****         thrd->setSleepTime(sleep_time);
  24:src/sleeping.cpp ****         head = thrd;
  25:src/sleeping.cpp ****         return 0;
  26:src/sleeping.cpp ****     }
  27:src/sleeping.cpp **** 
  28:src/sleeping.cpp ****     // Time2 is sleep time that will be decreased as we go through the list trying to find
  29:src/sleeping.cpp ****     // the first sleeping thread with bigger or equal time.
  30:src/sleeping.cpp ****     int time2 = sleep_time;
  31:src/sleeping.cpp **** 
  32:src/sleeping.cpp ****     // compareTime is a variable that stores the sleeping time of the current as
  33:src/sleeping.cpp ****     // we go through all of them
  34:src/sleeping.cpp ****     int compareTime = 0;
  35:src/sleeping.cpp **** 
GAS LISTING /tmp/cc7i3pbr.s 			page 3


  36:src/sleeping.cpp ****     // prethodni is a thread just before the current one in for loop.
  37:src/sleeping.cpp ****     // temp is the current thread in for loop.
  38:src/sleeping.cpp ****     TCB* prethodni = 0;
  47              		.loc 1 38 10
  48 0030 93060000 		li	a3,0
  49              	.LVL3:
  50              	.L3:
  39:src/sleeping.cpp ****     TCB* temp = head;
  40:src/sleeping.cpp **** 
  41:src/sleeping.cpp ****     // Main Algorithm
  42:src/sleeping.cpp ****     for(;temp != nullptr; temp = temp->next){
  51              		.loc 1 42 5 is_stmt 1 discriminator 1
  52              		.loc 1 42 15 discriminator 1
  53 0034 638E0704 		beqz	a5,.L4
  43:src/sleeping.cpp ****         compareTime = temp->getSleepTime();
  54              		.loc 1 43 9
  55              	.LVL4:
  56              	.LBB24:
  57              	.LBB25:
  34:src/../h/TCB.hpp **** 
  35:src/../h/TCB.hpp ****     // Running
  36:src/../h/TCB.hpp ****     bool isRunning(){ return this->state == RUNNING;}
  37:src/../h/TCB.hpp **** 
  38:src/../h/TCB.hpp ****     // Sleep time
  39:src/../h/TCB.hpp ****     void setSleepTime(int time1) { this->sleep_time = time1; }
  40:src/../h/TCB.hpp ****     int getSleepTime() { return this->sleep_time; }
  58              		.loc 2 40 26
  59              		.loc 2 40 39 is_stmt 0
  60 0038 03A70704 		lw	a4,64(a5)
  61              	.LVL5:
  62              	.LBE25:
  63              	.LBE24:
  44:src/sleeping.cpp ****         if(time2 <= compareTime){
  64              		.loc 1 44 9 is_stmt 1
  65 003c 6354B702 		ble	a1,a4,.L14
  45:src/sleeping.cpp ****             thrd->setSleepTime(time2);
  46:src/sleeping.cpp ****             thrd->next = temp;
  47:src/sleeping.cpp ****             (prethodni? prethodni->next:head) = thrd;
  48:src/sleeping.cpp **** //            for(;temp != nullptr; temp = temp->next){
  49:src/sleeping.cpp **** //                compareTime = temp->getSleepTime();
  50:src/sleeping.cpp **** //                if(compareTime > 0) temp->setSleepTime(compareTime-time2);
  51:src/sleeping.cpp **** //                else break;
  52:src/sleeping.cpp **** //                if (temp->getSleepTime() == 0) break;
  53:src/sleeping.cpp **** //            }
  54:src/sleeping.cpp ****             temp->setSleepTime(compareTime-time2);
  55:src/sleeping.cpp ****             return 0;
  56:src/sleeping.cpp ****         }
  57:src/sleeping.cpp ****         time2 -= compareTime;
  66              		.loc 1 57 9
  67              		.loc 1 57 15 is_stmt 0
  68 0040 BB85E540 		subw	a1,a1,a4
  69              	.LVL6:
  58:src/sleeping.cpp ****         prethodni = temp;
  70              		.loc 1 58 9 is_stmt 1
  42:src/sleeping.cpp ****         compareTime = temp->getSleepTime();
  71              		.loc 1 42 5
  72              		.loc 1 58 19 is_stmt 0
GAS LISTING /tmp/cc7i3pbr.s 			page 4


  73 0044 93860700 		mv	a3,a5
  42:src/sleeping.cpp ****         compareTime = temp->getSleepTime();
  74              		.loc 1 42 32
  75 0048 83B70700 		ld	a5,0(a5)
  76              	.LVL7:
  42:src/sleeping.cpp ****         compareTime = temp->getSleepTime();
  77              		.loc 1 42 5
  78 004c 6FF09FFE 		j	.L3
  79              	.LVL8:
  80              	.L13:
  23:src/sleeping.cpp ****         head = thrd;
  81              		.loc 1 23 9 is_stmt 1
  82              	.LBB26:
  83              	.LBB27:
  39:src/../h/TCB.hpp ****     int getSleepTime() { return this->sleep_time; }
  84              		.loc 2 39 36
  39:src/../h/TCB.hpp ****     int getSleepTime() { return this->sleep_time; }
  85              		.loc 2 39 53 is_stmt 0
  86 0050 2320B504 		sw	a1,64(a0)
  87              	.LVL9:
  88              	.LBE27:
  89              	.LBE26:
  24:src/sleeping.cpp ****         return 0;
  90              		.loc 1 24 9 is_stmt 1
  24:src/sleeping.cpp ****         return 0;
  91              		.loc 1 24 14 is_stmt 0
  92 0054 97070000 		sd	a0,.LANCHOR0,a5
  92      23B0A700 
  25:src/sleeping.cpp ****     }
  93              		.loc 1 25 9 is_stmt 1
  25:src/sleeping.cpp ****     }
  94              		.loc 1 25 16 is_stmt 0
  95 005c 13050000 		li	a0,0
  96              	.LVL10:
  97 0060 6F004005 		j	.L2
  98              	.LVL11:
  99              	.L14:
  45:src/sleeping.cpp ****             thrd->next = temp;
 100              		.loc 1 45 13 is_stmt 1
 101              	.LBB28:
 102              	.LBB29:
  39:src/../h/TCB.hpp ****     int getSleepTime() { return this->sleep_time; }
 103              		.loc 2 39 36
  39:src/../h/TCB.hpp ****     int getSleepTime() { return this->sleep_time; }
 104              		.loc 2 39 53 is_stmt 0
 105 0064 2320B504 		sw	a1,64(a0)
 106              	.LVL12:
 107              	.LBE29:
 108              	.LBE28:
  46:src/sleeping.cpp ****             (prethodni? prethodni->next:head) = thrd;
 109              		.loc 1 46 13 is_stmt 1
  46:src/sleeping.cpp ****             (prethodni? prethodni->next:head) = thrd;
 110              		.loc 1 46 24 is_stmt 0
 111 0068 2330F500 		sd	a5,0(a0)
  47:src/sleeping.cpp **** //            for(;temp != nullptr; temp = temp->next){
 112              		.loc 1 47 13 is_stmt 1
  47:src/sleeping.cpp **** //            for(;temp != nullptr; temp = temp->next){
GAS LISTING /tmp/cc7i3pbr.s 			page 5


 113              		.loc 1 47 47 is_stmt 0
 114 006c 638C0600 		beqz	a3,.L6
  47:src/sleeping.cpp **** //            for(;temp != nullptr; temp = temp->next){
 115              		.loc 1 47 47 discriminator 1
 116 0070 23B0A600 		sd	a0,0(a3)
 117              	.LVL13:
 118              	.L7:
  54:src/sleeping.cpp ****             return 0;
 119              		.loc 1 54 13 is_stmt 1
  54:src/sleeping.cpp ****             return 0;
 120              		.loc 1 54 31 is_stmt 0
 121 0074 BB05B740 		subw	a1,a4,a1
 122              	.LVL14:
 123              	.LBB30:
 124              	.LBB31:
  39:src/../h/TCB.hpp ****     int getSleepTime() { return this->sleep_time; }
 125              		.loc 2 39 36 is_stmt 1
  39:src/../h/TCB.hpp ****     int getSleepTime() { return this->sleep_time; }
 126              		.loc 2 39 53 is_stmt 0
 127 0078 23A0B704 		sw	a1,64(a5)
 128              	.LVL15:
 129              	.LBE31:
 130              	.LBE30:
  55:src/sleeping.cpp ****         }
 131              		.loc 1 55 13 is_stmt 1
  55:src/sleeping.cpp ****         }
 132              		.loc 1 55 20 is_stmt 0
 133 007c 13050000 		li	a0,0
 134              	.LVL16:
 135 0080 6F004003 		j	.L2
 136              	.LVL17:
 137              	.L6:
  47:src/sleeping.cpp **** //            for(;temp != nullptr; temp = temp->next){
 138              		.loc 1 47 47 discriminator 2
 139 0084 97060000 		sd	a0,.LANCHOR0,a3
 139      23B0A600 
 140              	.LVL18:
 141 008c 6FF09FFE 		j	.L7
 142              	.LVL19:
 143              	.L4:
  59:src/sleeping.cpp ****     }
  60:src/sleeping.cpp **** 
  61:src/sleeping.cpp ****     // If we get to this section of the code, it means that there is no thread in
  62:src/sleeping.cpp ****     // sleeping list with larger sleeping time, which means that we put our thread at
  63:src/sleeping.cpp ****     // the end of the list.
  64:src/sleeping.cpp ****     thrd->setSleepTime(time2);
 144              		.loc 1 64 5 is_stmt 1
 145              	.LBB32:
 146              	.LBB33:
  39:src/../h/TCB.hpp ****     int getSleepTime() { return this->sleep_time; }
 147              		.loc 2 39 36
  39:src/../h/TCB.hpp ****     int getSleepTime() { return this->sleep_time; }
 148              		.loc 2 39 53 is_stmt 0
 149 0090 2320B504 		sw	a1,64(a0)
 150              	.LVL20:
 151              	.LBE33:
 152              	.LBE32:
GAS LISTING /tmp/cc7i3pbr.s 			page 6


  65:src/sleeping.cpp ****     prethodni->next = thrd;
 153              		.loc 1 65 5 is_stmt 1
 154              		.loc 1 65 21 is_stmt 0
 155 0094 23B0A600 		sd	a0,0(a3)
  66:src/sleeping.cpp **** 
  67:src/sleeping.cpp ****     return 0;
 156              		.loc 1 67 5 is_stmt 1
 157              		.loc 1 67 12 is_stmt 0
 158 0098 13050000 		li	a0,0
 159              	.LVL21:
 160 009c 6F008001 		j	.L2
 161              	.LVL22:
 162              	.L8:
  13:src/sleeping.cpp ****     if(thrd == nullptr) return -1;
 163              		.loc 1 13 32
 164 00a0 1305F0FF 		li	a0,-1
 165              	.LVL23:
 166 00a4 6F000001 		j	.L2
 167              	.LVL24:
 168              	.L9:
  14:src/sleeping.cpp ****     if(sleep_time == 0) return 0;
 169              		.loc 1 14 33
 170 00a8 1305F0FF 		li	a0,-1
 171              	.LVL25:
 172 00ac 6F008000 		j	.L2
 173              	.LVL26:
 174              	.L10:
  15:src/sleeping.cpp **** 
 175              		.loc 1 15 32
 176 00b0 13850500 		mv	a0,a1
 177              	.LVL27:
 178              	.L2:
  68:src/sleeping.cpp **** }
 179              		.loc 1 68 1
 180 00b4 03348100 		ld	s0,8(sp)
 181              		.cfi_restore 8
 182              		.cfi_def_cfa 2, 16
 183 00b8 13010101 		addi	sp,sp,16
 184              		.cfi_def_cfa_offset 0
 185 00bc 67800000 		jr	ra
 186              		.cfi_endproc
 187              	.LFE23:
 189              		.align	2
 190              		.globl	_ZN8sleeping12timeDecreaseEv
 192              	_ZN8sleeping12timeDecreaseEv:
 193              	.LFB24:
  69:src/sleeping.cpp **** 
  70:src/sleeping.cpp **** void sleeping::timeDecrease() {
 194              		.loc 1 70 31 is_stmt 1
 195              		.cfi_startproc
  71:src/sleeping.cpp ****     // Check if sleeping list is empty
  72:src/sleeping.cpp ****     if(head == nullptr) return;
 196              		.loc 1 72 5
 197              		.loc 1 72 13 is_stmt 0
 198 00c0 17050000 		ld	a0,.LANCHOR0
 198      03350500 
 199              		.loc 1 72 5
GAS LISTING /tmp/cc7i3pbr.s 			page 7


 200 00c8 630E0506 		beqz	a0,.L19
  73:src/sleeping.cpp **** 
  74:src/sleeping.cpp ****     // Update sleep time of the first thread in list
  75:src/sleeping.cpp ****     int sleeptime = head->getSleepTime();
 201              		.loc 1 75 5 is_stmt 1
 202              	.LVL28:
 203              	.LBB34:
 204              	.LBB35:
 205              		.loc 2 40 26
 206              		.loc 2 40 39 is_stmt 0
 207 00cc 83270504 		lw	a5,64(a0)
 208              	.LVL29:
 209              	.LBE35:
 210              	.LBE34:
  76:src/sleeping.cpp ****     sleeptime--;
 211              		.loc 1 76 5 is_stmt 1
 212              		.loc 1 76 14 is_stmt 0
 213 00d0 9B87F7FF 		addiw	a5,a5,-1
 214              	.LVL30:
  77:src/sleeping.cpp ****     head->setSleepTime(sleeptime);
 215              		.loc 1 77 5 is_stmt 1
 216              	.LBB36:
 217              	.LBB37:
  39:src/../h/TCB.hpp ****     int getSleepTime() { return this->sleep_time; }
 218              		.loc 2 39 36
  39:src/../h/TCB.hpp ****     int getSleepTime() { return this->sleep_time; }
 219              		.loc 2 39 53 is_stmt 0
 220 00d4 2320F504 		sw	a5,64(a0)
 221              	.LVL31:
 222              	.LBE37:
 223              	.LBE36:
  78:src/sleeping.cpp **** 
  79:src/sleeping.cpp ****     // temp is the current thread in the sleeping list as we go through all of them
  80:src/sleeping.cpp ****     TCB* temp = head;
 224              		.loc 1 80 5 is_stmt 1
  81:src/sleeping.cpp ****     while (true){
 225              		.loc 1 81 5
  82:src/sleeping.cpp ****         // Check if we reached the end of the list
  83:src/sleeping.cpp ****         if(temp == nullptr) break;
 226              		.loc 1 83 9
 227 00d8 63060506 		beqz	a0,.L19
  84:src/sleeping.cpp **** 
  85:src/sleeping.cpp ****         sleeptime = temp->getSleepTime();
 228              		.loc 1 85 9
 229              	.LVL32:
 230              	.LBB38:
 231              	.LBB39:
 232              		.loc 2 40 26
 233              		.loc 2 40 39 is_stmt 0
 234 00dc 83270504 		lw	a5,64(a0)
 235              	.LVL33:
 236              	.LBE39:
 237              	.LBE38:
  86:src/sleeping.cpp ****         if(sleeptime <= 0){ // We can put == as well, this just makes it more secure
 238              		.loc 1 86 9 is_stmt 1
 239 00e0 6342F006 		bgtz	a5,.L19
  70:src/sleeping.cpp ****     // Check if sleeping list is empty
GAS LISTING /tmp/cc7i3pbr.s 			page 8


 240              		.loc 1 70 31 is_stmt 0
 241 00e4 130101FE 		addi	sp,sp,-32
 242              		.cfi_def_cfa_offset 32
 243 00e8 233C1100 		sd	ra,24(sp)
 244 00ec 23388100 		sd	s0,16(sp)
 245 00f0 23349100 		sd	s1,8(sp)
 246              		.cfi_offset 1, -8
 247              		.cfi_offset 8, -16
 248              		.cfi_offset 9, -24
 249 00f4 13040102 		addi	s0,sp,32
 250              		.cfi_def_cfa 8, 0
 251 00f8 6F00C000 		j	.L22
 252              	.LVL34:
 253              	.L25:
  85:src/sleeping.cpp ****         if(sleeptime <= 0){ // We can put == as well, this just makes it more secure
 254              		.loc 1 85 9 is_stmt 1
 255              	.LBB41:
 256              	.LBB40:
 257              		.loc 2 40 26
 258              		.loc 2 40 39 is_stmt 0
 259 00fc 83270504 		lw	a5,64(a0)
 260              	.LVL35:
 261              	.LBE40:
 262              	.LBE41:
 263              		.loc 1 86 9 is_stmt 1
 264 0100 6348F002 		bgtz	a5,.L15
 265              	.L22:
  87:src/sleeping.cpp ****             // Putting the sleeping thread back in scheduler
  88:src/sleeping.cpp ****             temp->setSleeping(false);
 266              		.loc 1 88 13
 267              	.LVL36:
 268              	.LBB42:
 269              	.LBB43:
  33:src/../h/TCB.hpp **** 
 270              		.loc 2 33 39
  33:src/../h/TCB.hpp **** 
 271              		.loc 2 33 51 is_stmt 0
 272 0104 93071000 		li	a5,1
 273              	.LVL37:
 274 0108 2324F502 		sw	a5,40(a0)
 275              	.LVL38:
 276              	.LBE43:
 277              	.LBE42:
  89:src/sleeping.cpp ****             head = temp->next;
 278              		.loc 1 89 13 is_stmt 1
 279              		.loc 1 89 26 is_stmt 0
 280 010c 83370500 		ld	a5,0(a0)
 281              		.loc 1 89 18
 282 0110 97040000 		lla	s1,.LANCHOR0
 282      93840400 
 283 0118 23B0F400 		sd	a5,0(s1)
  90:src/sleeping.cpp ****             temp->next = 0;
 284              		.loc 1 90 13 is_stmt 1
 285              		.loc 1 90 24 is_stmt 0
 286 011c 23300500 		sd	zero,0(a0)
  91:src/sleeping.cpp ****             Scheduler::put(temp);
 287              		.loc 1 91 13 is_stmt 1
GAS LISTING /tmp/cc7i3pbr.s 			page 9


 288              		.loc 1 91 27 is_stmt 0
 289 0120 97000000 		call	_ZN9Scheduler3putEP3TCB@plt
 289      E7800000 
 290              	.LVL39:
  92:src/sleeping.cpp ****             temp = head;
 291              		.loc 1 92 13 is_stmt 1
 292              		.loc 1 92 18 is_stmt 0
 293 0128 03B50400 		ld	a0,0(s1)
 294              	.LVL40:
  81:src/sleeping.cpp ****         // Check if we reached the end of the list
 295              		.loc 1 81 5 is_stmt 1
  81:src/sleeping.cpp ****         // Check if we reached the end of the list
 296              		.loc 1 81 5
  83:src/sleeping.cpp **** 
 297              		.loc 1 83 9
 298 012c E31805FC 		bnez	a0,.L25
 299              	.L15:
  93:src/sleeping.cpp ****         } else break;
  94:src/sleeping.cpp ****     }
  95:src/sleeping.cpp **** }...
 300              		.loc 1 95 1 is_stmt 0
 301 0130 83308101 		ld	ra,24(sp)
 302              		.cfi_restore 1
 303 0134 03340101 		ld	s0,16(sp)
 304              		.cfi_restore 8
 305              		.cfi_def_cfa 2, 32
 306 0138 83348100 		ld	s1,8(sp)
 307              		.cfi_restore 9
 308 013c 13010102 		addi	sp,sp,32
 309              		.cfi_def_cfa_offset 0
 310 0140 67800000 		jr	ra
 311              	.LVL41:
 312              	.L19:
 313 0144 67800000 		ret
 314              		.cfi_endproc
 315              	.LFE24:
 317              		.globl	_ZN8sleeping4headE
 318              		.bss
 319              		.align	3
 320              		.set	.LANCHOR0,. + 0
 323              	_ZN8sleeping4headE:
 324 0000 00000000 		.zero	8
 324      00000000 
 325              		.text
 326              	.Letext0:
 327              		.file 3 "src/../h/sleeping.hpp"
 328              		.file 4 "src/../h/../lib/hw.h"
 329              		.file 5 "src/../h/../h/Scheduler.hpp"
 330              		.file 6 "src/../h/list.hpp"
 331              		.file 7 "src/../h/syscall_c.hpp"
GAS LISTING /tmp/cc7i3pbr.s 			page 10


DEFINED SYMBOLS
                            *ABS*:0000000000000000 sleeping.cpp
     /tmp/cc7i3pbr.s:9      .text:0000000000000000 _ZN8sleeping3putEP3TCBi
     /tmp/cc7i3pbr.s:13     .text:0000000000000000 .L0 
     /tmp/cc7i3pbr.s:15     .text:0000000000000000 .L0 
     /tmp/cc7i3pbr.s:16     .text:0000000000000004 .L0 
     /tmp/cc7i3pbr.s:18     .text:0000000000000008 .L0 
     /tmp/cc7i3pbr.s:20     .text:000000000000000c .L0 
     /tmp/cc7i3pbr.s:22     .text:000000000000000c .L0 
     /tmp/cc7i3pbr.s:24     .text:0000000000000010 .L0 
     /tmp/cc7i3pbr.s:26     .text:0000000000000014 .L0 
     /tmp/cc7i3pbr.s:32     .text:0000000000000018 .L0 
     /tmp/cc7i3pbr.s:33     .text:0000000000000018 .L0 
     /tmp/cc7i3pbr.s:34     .text:0000000000000018 .L0 
     /tmp/cc7i3pbr.s:40     .text:0000000000000020 .L0 
     /tmp/cc7i3pbr.s:41     .text:0000000000000020 .L0 
     /tmp/cc7i3pbr.s:43     .text:0000000000000024 .L0 
     /tmp/cc7i3pbr.s:44     .text:0000000000000024 .L0 
     /tmp/cc7i3pbr.s:46     .text:000000000000002c .L0 
     /tmp/cc7i3pbr.s:48     .text:0000000000000030 .L0 
     /tmp/cc7i3pbr.s:52     .text:0000000000000034 .L0 
     /tmp/cc7i3pbr.s:53     .text:0000000000000034 .L0 
     /tmp/cc7i3pbr.s:58     .text:0000000000000038 .L0 
     /tmp/cc7i3pbr.s:59     .text:0000000000000038 .L0 
     /tmp/cc7i3pbr.s:60     .text:0000000000000038 .L0 
     /tmp/cc7i3pbr.s:65     .text:000000000000003c .L0 
     /tmp/cc7i3pbr.s:67     .text:0000000000000040 .L0 
     /tmp/cc7i3pbr.s:68     .text:0000000000000040 .L0 
     /tmp/cc7i3pbr.s:71     .text:0000000000000044 .L0 
     /tmp/cc7i3pbr.s:72     .text:0000000000000044 .L0 
     /tmp/cc7i3pbr.s:73     .text:0000000000000044 .L0 
     /tmp/cc7i3pbr.s:75     .text:0000000000000048 .L0 
     /tmp/cc7i3pbr.s:78     .text:000000000000004c .L0 
     /tmp/cc7i3pbr.s:84     .text:0000000000000050 .L0 
     /tmp/cc7i3pbr.s:85     .text:0000000000000050 .L0 
     /tmp/cc7i3pbr.s:86     .text:0000000000000050 .L0 
     /tmp/cc7i3pbr.s:91     .text:0000000000000054 .L0 
     /tmp/cc7i3pbr.s:92     .text:0000000000000054 .L0 
     /tmp/cc7i3pbr.s:94     .text:000000000000005c .L0 
     /tmp/cc7i3pbr.s:95     .text:000000000000005c .L0 
     /tmp/cc7i3pbr.s:103    .text:0000000000000064 .L0 
     /tmp/cc7i3pbr.s:104    .text:0000000000000064 .L0 
     /tmp/cc7i3pbr.s:105    .text:0000000000000064 .L0 
     /tmp/cc7i3pbr.s:110    .text:0000000000000068 .L0 
     /tmp/cc7i3pbr.s:111    .text:0000000000000068 .L0 
     /tmp/cc7i3pbr.s:113    .text:000000000000006c .L0 
     /tmp/cc7i3pbr.s:114    .text:000000000000006c .L0 
     /tmp/cc7i3pbr.s:116    .text:0000000000000070 .L0 
     /tmp/cc7i3pbr.s:120    .text:0000000000000074 .L0 
     /tmp/cc7i3pbr.s:121    .text:0000000000000074 .L0 
     /tmp/cc7i3pbr.s:126    .text:0000000000000078 .L0 
     /tmp/cc7i3pbr.s:127    .text:0000000000000078 .L0 
     /tmp/cc7i3pbr.s:132    .text:000000000000007c .L0 
     /tmp/cc7i3pbr.s:133    .text:000000000000007c .L0 
     /tmp/cc7i3pbr.s:139    .text:0000000000000084 .L0 
     /tmp/cc7i3pbr.s:147    .text:0000000000000090 .L0 
     /tmp/cc7i3pbr.s:148    .text:0000000000000090 .L0 
GAS LISTING /tmp/cc7i3pbr.s 			page 11


     /tmp/cc7i3pbr.s:149    .text:0000000000000090 .L0 
     /tmp/cc7i3pbr.s:154    .text:0000000000000094 .L0 
     /tmp/cc7i3pbr.s:155    .text:0000000000000094 .L0 
     /tmp/cc7i3pbr.s:157    .text:0000000000000098 .L0 
     /tmp/cc7i3pbr.s:158    .text:0000000000000098 .L0 
     /tmp/cc7i3pbr.s:164    .text:00000000000000a0 .L0 
     /tmp/cc7i3pbr.s:170    .text:00000000000000a8 .L0 
     /tmp/cc7i3pbr.s:176    .text:00000000000000b0 .L0 
     /tmp/cc7i3pbr.s:180    .text:00000000000000b4 .L0 
     /tmp/cc7i3pbr.s:181    .text:00000000000000b8 .L0 
     /tmp/cc7i3pbr.s:182    .text:00000000000000b8 .L0 
     /tmp/cc7i3pbr.s:184    .text:00000000000000bc .L0 
     /tmp/cc7i3pbr.s:186    .text:00000000000000c0 .L0 
     /tmp/cc7i3pbr.s:192    .text:00000000000000c0 _ZN8sleeping12timeDecreaseEv
     /tmp/cc7i3pbr.s:195    .text:00000000000000c0 .L0 
     /tmp/cc7i3pbr.s:196    .text:00000000000000c0 .L0 
     /tmp/cc7i3pbr.s:197    .text:00000000000000c0 .L0 
     /tmp/cc7i3pbr.s:198    .text:00000000000000c0 .L0 
     /tmp/cc7i3pbr.s:200    .text:00000000000000c8 .L0 
     /tmp/cc7i3pbr.s:205    .text:00000000000000cc .L0 
     /tmp/cc7i3pbr.s:206    .text:00000000000000cc .L0 
     /tmp/cc7i3pbr.s:207    .text:00000000000000cc .L0 
     /tmp/cc7i3pbr.s:212    .text:00000000000000d0 .L0 
     /tmp/cc7i3pbr.s:213    .text:00000000000000d0 .L0 
     /tmp/cc7i3pbr.s:218    .text:00000000000000d4 .L0 
     /tmp/cc7i3pbr.s:219    .text:00000000000000d4 .L0 
     /tmp/cc7i3pbr.s:220    .text:00000000000000d4 .L0 
     /tmp/cc7i3pbr.s:225    .text:00000000000000d8 .L0 
     /tmp/cc7i3pbr.s:226    .text:00000000000000d8 .L0 
     /tmp/cc7i3pbr.s:227    .text:00000000000000d8 .L0 
     /tmp/cc7i3pbr.s:232    .text:00000000000000dc .L0 
     /tmp/cc7i3pbr.s:233    .text:00000000000000dc .L0 
     /tmp/cc7i3pbr.s:234    .text:00000000000000dc .L0 
     /tmp/cc7i3pbr.s:239    .text:00000000000000e0 .L0 
     /tmp/cc7i3pbr.s:241    .text:00000000000000e4 .L0 
     /tmp/cc7i3pbr.s:242    .text:00000000000000e8 .L0 
     /tmp/cc7i3pbr.s:246    .text:00000000000000f4 .L0 
     /tmp/cc7i3pbr.s:247    .text:00000000000000f4 .L0 
     /tmp/cc7i3pbr.s:248    .text:00000000000000f4 .L0 
     /tmp/cc7i3pbr.s:250    .text:00000000000000f8 .L0 
     /tmp/cc7i3pbr.s:257    .text:00000000000000fc .L0 
     /tmp/cc7i3pbr.s:258    .text:00000000000000fc .L0 
     /tmp/cc7i3pbr.s:259    .text:00000000000000fc .L0 
     /tmp/cc7i3pbr.s:264    .text:0000000000000100 .L0 
     /tmp/cc7i3pbr.s:270    .text:0000000000000104 .L0 
     /tmp/cc7i3pbr.s:271    .text:0000000000000104 .L0 
     /tmp/cc7i3pbr.s:272    .text:0000000000000104 .L0 
     /tmp/cc7i3pbr.s:279    .text:000000000000010c .L0 
     /tmp/cc7i3pbr.s:280    .text:000000000000010c .L0 
     /tmp/cc7i3pbr.s:282    .text:0000000000000110 .L0 
     /tmp/cc7i3pbr.s:285    .text:000000000000011c .L0 
     /tmp/cc7i3pbr.s:286    .text:000000000000011c .L0 
     /tmp/cc7i3pbr.s:288    .text:0000000000000120 .L0 
     /tmp/cc7i3pbr.s:289    .text:0000000000000120 .L0 
     /tmp/cc7i3pbr.s:292    .text:0000000000000128 .L0 
     /tmp/cc7i3pbr.s:293    .text:0000000000000128 .L0 
     /tmp/cc7i3pbr.s:296    .text:000000000000012c .L0 
GAS LISTING /tmp/cc7i3pbr.s 			page 12


     /tmp/cc7i3pbr.s:297    .text:000000000000012c .L0 
     /tmp/cc7i3pbr.s:298    .text:000000000000012c .L0 
     /tmp/cc7i3pbr.s:301    .text:0000000000000130 .L0 
     /tmp/cc7i3pbr.s:302    .text:0000000000000134 .L0 
     /tmp/cc7i3pbr.s:304    .text:0000000000000138 .L0 
     /tmp/cc7i3pbr.s:305    .text:0000000000000138 .L0 
     /tmp/cc7i3pbr.s:307    .text:000000000000013c .L0 
     /tmp/cc7i3pbr.s:309    .text:0000000000000140 .L0 
     /tmp/cc7i3pbr.s:314    .text:0000000000000148 .L0 
     /tmp/cc7i3pbr.s:323    .bss:0000000000000000 _ZN8sleeping4headE
     /tmp/cc7i3pbr.s:320    .bss:0000000000000000 .LANCHOR0
     /tmp/cc7i3pbr.s:332    .text:0000000000000148 .L0 
     /tmp/cc7i3pbr.s:44     .text:0000000000000024 .L0 
     /tmp/cc7i3pbr.s:92     .text:0000000000000054 .L0 
     /tmp/cc7i3pbr.s:139    .text:0000000000000084 .L0 
     /tmp/cc7i3pbr.s:198    .text:00000000000000c0 .L0 
     /tmp/cc7i3pbr.s:282    .text:0000000000000110 .L0 
     /tmp/cc7i3pbr.s:162    .text:00000000000000a0 .L8
     /tmp/cc7i3pbr.s:168    .text:00000000000000a8 .L9
     /tmp/cc7i3pbr.s:174    .text:00000000000000b0 .L10
     /tmp/cc7i3pbr.s:80     .text:0000000000000050 .L13
     /tmp/cc7i3pbr.s:143    .text:0000000000000090 .L4
     /tmp/cc7i3pbr.s:99     .text:0000000000000064 .L14
     /tmp/cc7i3pbr.s:50     .text:0000000000000034 .L3
     /tmp/cc7i3pbr.s:178    .text:00000000000000b4 .L2
     /tmp/cc7i3pbr.s:137    .text:0000000000000084 .L6
     /tmp/cc7i3pbr.s:118    .text:0000000000000074 .L7
     /tmp/cc7i3pbr.s:312    .text:0000000000000144 .L19
     /tmp/cc7i3pbr.s:265    .text:0000000000000104 .L22
     /tmp/cc7i3pbr.s:299    .text:0000000000000130 .L15
     /tmp/cc7i3pbr.s:253    .text:00000000000000fc .L25
     /tmp/cc7i3pbr.s:1388   .debug_abbrev:0000000000000000 .Ldebug_abbrev0
     /tmp/cc7i3pbr.s:2890   .debug_str:0000000000000587 .LASF102
     /tmp/cc7i3pbr.s:2822   .debug_str:00000000000003a0 .LASF103
     /tmp/cc7i3pbr.s:2850   .debug_str:0000000000000452 .LASF104
     /tmp/cc7i3pbr.s:5      .text:0000000000000000 .Ltext0
     /tmp/cc7i3pbr.s:326    .text:0000000000000148 .Letext0
     /tmp/cc7i3pbr.s:2690   .debug_line:0000000000000000 .Ldebug_line0
     /tmp/cc7i3pbr.s:2864   .debug_str:00000000000004da .LASF0
     /tmp/cc7i3pbr.s:2738   .debug_str:0000000000000163 .LASF5
     /tmp/cc7i3pbr.s:2860   .debug_str:00000000000004b3 .LASF105
     /tmp/cc7i3pbr.s:2824   .debug_str:00000000000003b1 .LASF39
     /tmp/cc7i3pbr.s:2806   .debug_str:0000000000000320 .LASF41
     /tmp/cc7i3pbr.s:2772   .debug_str:0000000000000241 .LASF106
     /tmp/cc7i3pbr.s:2884   .debug_str:000000000000055d .LASF1
     /tmp/cc7i3pbr.s:2856   .debug_str:00000000000004a1 .LASF2
     /tmp/cc7i3pbr.s:2784   .debug_str:00000000000002a7 .LASF3
     /tmp/cc7i3pbr.s:2704   .debug_str:0000000000000046 .LASF4
     /tmp/cc7i3pbr.s:2702   .debug_str:000000000000003e .LASF107
     /tmp/cc7i3pbr.s:2920   .debug_str:0000000000000731 .LASF6
     /tmp/cc7i3pbr.s:2794   .debug_str:00000000000002d2 .LASF7
     /tmp/cc7i3pbr.s:2910   .debug_str:00000000000006c8 .LASF11
     /tmp/cc7i3pbr.s:2714   .debug_str:000000000000008a .LASF8
     /tmp/cc7i3pbr.s:2840   .debug_str:000000000000041c .LASF9
     /tmp/cc7i3pbr.s:2880   .debug_str:000000000000054d .LASF13
     /tmp/cc7i3pbr.s:2768   .debug_str:000000000000021c .LASF15
     /tmp/cc7i3pbr.s:2814   .debug_str:000000000000036c .LASF10
GAS LISTING /tmp/cc7i3pbr.s 			page 13


     /tmp/cc7i3pbr.s:2776   .debug_str:0000000000000252 .LASF12
     /tmp/cc7i3pbr.s:2700   .debug_str:0000000000000034 .LASF14
     /tmp/cc7i3pbr.s:2798   .debug_str:00000000000002f0 .LASF16
     /tmp/cc7i3pbr.s:2786   .debug_str:00000000000002af .LASF17
     /tmp/cc7i3pbr.s:2902   .debug_str:0000000000000681 .LASF18
     /tmp/cc7i3pbr.s:2900   .debug_str:0000000000000676 .LASF19
     /tmp/cc7i3pbr.s:2740   .debug_str:0000000000000168 .LASF20
     /tmp/cc7i3pbr.s:2748   .debug_str:00000000000001a5 .LASF21
     /tmp/cc7i3pbr.s:2756   .debug_str:00000000000001d3 .LASF22
     /tmp/cc7i3pbr.s:2766   .debug_str:0000000000000212 .LASF23
     /tmp/cc7i3pbr.s:2924   .debug_str:000000000000073c .LASF24
     /tmp/cc7i3pbr.s:2726   .debug_str:00000000000000f5 .LASF25
     /tmp/cc7i3pbr.s:2716   .debug_str:000000000000008f .LASF26
     /tmp/cc7i3pbr.s:2878   .debug_str:0000000000000540 .LASF27
     /tmp/cc7i3pbr.s:2732   .debug_str:0000000000000125 .LASF28
     /tmp/cc7i3pbr.s:2820   .debug_str:000000000000038c .LASF29
     /tmp/cc7i3pbr.s:2734   .debug_str:000000000000013d .LASF30
     /tmp/cc7i3pbr.s:2888   .debug_str:0000000000000573 .LASF31
     /tmp/cc7i3pbr.s:2876   .debug_str:0000000000000521 .LASF32
     /tmp/cc7i3pbr.s:2886   .debug_str:0000000000000566 .LASF33
     /tmp/cc7i3pbr.s:2708   .debug_str:000000000000005f .LASF34
     /tmp/cc7i3pbr.s:2904   .debug_str:0000000000000697 .LASF35
     /tmp/cc7i3pbr.s:2754   .debug_str:00000000000001bf .LASF36
     /tmp/cc7i3pbr.s:2892   .debug_str:000000000000064b .LASF37
     /tmp/cc7i3pbr.s:2720   .debug_str:00000000000000b6 .LASF38
     /tmp/cc7i3pbr.s:2752   .debug_str:00000000000001b9 .LASF40
     /tmp/cc7i3pbr.s:2706   .debug_str:000000000000004f .LASF42
     /tmp/cc7i3pbr.s:2882   .debug_str:0000000000000558 .LASF56
     /tmp/cc7i3pbr.s:2866   .debug_str:00000000000004e3 .LASF108
     /tmp/cc7i3pbr.s:2804   .debug_str:000000000000031b .LASF43
     /tmp/cc7i3pbr.s:2718   .debug_str:00000000000000a7 .LASF44
     /tmp/cc7i3pbr.s:2750   .debug_str:00000000000001b1 .LASF109
     /tmp/cc7i3pbr.s:2744   .debug_str:0000000000000193 .LASF45
     /tmp/cc7i3pbr.s:2872   .debug_str:00000000000004ff .LASF46
     /tmp/cc7i3pbr.s:2788   .debug_str:00000000000002ba .LASF47
     /tmp/cc7i3pbr.s:2842   .debug_str:0000000000000425 .LASF48
     /tmp/cc7i3pbr.s:2838   .debug_str:0000000000000416 .LASF49
     /tmp/cc7i3pbr.s:2762   .debug_str:00000000000001f9 .LASF50
     /tmp/cc7i3pbr.s:2800   .debug_str:0000000000000305 .LASF51
     /tmp/cc7i3pbr.s:2790   .debug_str:00000000000002bf .LASF52
     /tmp/cc7i3pbr.s:2792   .debug_str:00000000000002c7 .LASF53
     /tmp/cc7i3pbr.s:2692   .debug_str:0000000000000000 .LASF54
     /tmp/cc7i3pbr.s:2796   .debug_str:00000000000002df .LASF55
     /tmp/cc7i3pbr.s:2826   .debug_str:00000000000003be .LASF110
     /tmp/cc7i3pbr.s:2912   .debug_str:00000000000006ea .LASF84
     /tmp/cc7i3pbr.s:2778   .debug_str:0000000000000269 .LASF111
     /tmp/cc7i3pbr.s:2810   .debug_str:0000000000000350 .LASF57
     /tmp/cc7i3pbr.s:2914   .debug_str:00000000000006f8 .LASF59
     /tmp/cc7i3pbr.s:2834   .debug_str:0000000000000408 .LASF58
     /tmp/cc7i3pbr.s:2808   .debug_str:000000000000033d .LASF60
     /tmp/cc7i3pbr.s:2774   .debug_str:0000000000000247 .LASF61
     /tmp/cc7i3pbr.s:2712   .debug_str:000000000000007f .LASF62
     /tmp/cc7i3pbr.s:2782   .debug_str:0000000000000296 .LASF63
     /tmp/cc7i3pbr.s:2832   .debug_str:00000000000003fb .LASF64
     /tmp/cc7i3pbr.s:2848   .debug_str:000000000000043f .LASF65
     /tmp/cc7i3pbr.s:2812   .debug_str:000000000000035e .LASF66
     /tmp/cc7i3pbr.s:2868   .debug_str:00000000000004f4 .LASF67
GAS LISTING /tmp/cc7i3pbr.s 			page 14


     /tmp/cc7i3pbr.s:2736   .debug_str:000000000000015c .LASF68
     /tmp/cc7i3pbr.s:2694   .debug_str:000000000000000d .LASF69
     /tmp/cc7i3pbr.s:2710   .debug_str:0000000000000078 .LASF70
     /tmp/cc7i3pbr.s:2852   .debug_str:000000000000047e .LASF71
     /tmp/cc7i3pbr.s:2830   .debug_str:00000000000003e8 .LASF72
     /tmp/cc7i3pbr.s:2906   .debug_str:00000000000006a0 .LASF73
     /tmp/cc7i3pbr.s:2770   .debug_str:0000000000000233 .LASF74
     /tmp/cc7i3pbr.s:2862   .debug_str:00000000000004cb .LASF75
     /tmp/cc7i3pbr.s:2896   .debug_str:0000000000000661 .LASF76
     /tmp/cc7i3pbr.s:2802   .debug_str:000000000000030b .LASF77
     /tmp/cc7i3pbr.s:2696   .debug_str:000000000000001f .LASF78
     /tmp/cc7i3pbr.s:2728   .debug_str:0000000000000102 .LASF79
     /tmp/cc7i3pbr.s:2874   .debug_str:000000000000050b .LASF80
     /tmp/cc7i3pbr.s:2916   .debug_str:0000000000000711 .LASF81
     /tmp/cc7i3pbr.s:2858   .debug_str:00000000000004a9 .LASF82
     /tmp/cc7i3pbr.s:2764   .debug_str:0000000000000201 .LASF83
     /tmp/cc7i3pbr.s:2742   .debug_str:000000000000017f .LASF112
     /tmp/cc7i3pbr.s:2724   .debug_str:00000000000000dd .LASF113
     /tmp/cc7i3pbr.s:2780   .debug_str:0000000000000291 .LASF85
     /tmp/cc7i3pbr.s:2844   .debug_str:000000000000042e .LASF86
     /tmp/cc7i3pbr.s:2746   .debug_str:0000000000000198 .LASF87
     /tmp/cc7i3pbr.s:2854   .debug_str:0000000000000491 .LASF88
     /tmp/cc7i3pbr.s:2918   .debug_str:0000000000000727 .LASF114
     /tmp/cc7i3pbr.s:2722   .debug_str:00000000000000cd .LASF115
     /tmp/cc7i3pbr.s:2818   .debug_str:0000000000000384 .LASF89
     /tmp/cc7i3pbr.s:2730   .debug_str:000000000000010e .LASF90
     /tmp/cc7i3pbr.s:2816   .debug_str:0000000000000378 .LASF91
     /tmp/cc7i3pbr.s:2908   .debug_str:00000000000006b0 .LASF92
     /tmp/cc7i3pbr.s:2758   .debug_str:00000000000001ea .LASF93
     /tmp/cc7i3pbr.s:2828   .debug_str:00000000000003d5 .LASF116
     /tmp/cc7i3pbr.s:193    .text:00000000000000c0 .LFB24
     /tmp/cc7i3pbr.s:315    .text:0000000000000148 .LFE24
     /tmp/cc7i3pbr.s:2894   .debug_str:0000000000000657 .LASF94
     /tmp/cc7i3pbr.s:2348   .debug_loc:0000000000000000 .LLST17
     /tmp/cc7i3pbr.s:2836   .debug_str:0000000000000411 .LASF95
     /tmp/cc7i3pbr.s:2359   .debug_loc:0000000000000036 .LLST18
     /tmp/cc7i3pbr.s:203    .text:00000000000000cc .LBB34
     /tmp/cc7i3pbr.s:210    .text:00000000000000d0 .LBE34
     /tmp/cc7i3pbr.s:2370   .debug_loc:000000000000006c .LLST19
     /tmp/cc7i3pbr.s:216    .text:00000000000000d4 .LBB36
     /tmp/cc7i3pbr.s:223    .text:00000000000000d8 .LBE36
     /tmp/cc7i3pbr.s:2377   .debug_loc:000000000000008f .LLST20
     /tmp/cc7i3pbr.s:2384   .debug_loc:00000000000000b2 .LLST21
     /tmp/cc7i3pbr.s:230    .text:00000000000000dc .LBB38
     /tmp/cc7i3pbr.s:2682   .debug_ranges:0000000000000000 .Ldebug_ranges0
     /tmp/cc7i3pbr.s:2391   .debug_loc:00000000000000d5 .LLST22
     /tmp/cc7i3pbr.s:268    .text:0000000000000104 .LBB42
     /tmp/cc7i3pbr.s:277    .text:000000000000010c .LBE42
     /tmp/cc7i3pbr.s:2402   .debug_loc:000000000000010b .LLST23
     /tmp/cc7i3pbr.s:2410   .debug_loc:000000000000012f .LLST24
     /tmp/cc7i3pbr.s:290    .text:0000000000000128 .LVL39
     /tmp/cc7i3pbr.s:10     .text:0000000000000000 .LFB23
     /tmp/cc7i3pbr.s:187    .text:00000000000000c0 .LFE23
     /tmp/cc7i3pbr.s:2698   .debug_str:000000000000002f .LASF96
     /tmp/cc7i3pbr.s:2417   .debug_loc:0000000000000152 .LLST0
     /tmp/cc7i3pbr.s:2482   .debug_loc:000000000000025b .LLST1
     /tmp/cc7i3pbr.s:2898   .debug_str:0000000000000670 .LASF97
GAS LISTING /tmp/cc7i3pbr.s 			page 15


     /tmp/cc7i3pbr.s:2518   .debug_loc:00000000000002e6 .LLST2
     /tmp/cc7i3pbr.s:2846   .debug_str:0000000000000433 .LASF98
     /tmp/cc7i3pbr.s:2533   .debug_loc:000000000000032f .LLST3
     /tmp/cc7i3pbr.s:2760   .debug_str:00000000000001ef .LASF99
     /tmp/cc7i3pbr.s:2544   .debug_loc:0000000000000365 .LLST4
     /tmp/cc7i3pbr.s:2571   .debug_loc:00000000000003e7 .LLST5
     /tmp/cc7i3pbr.s:29     .text:0000000000000018 .LBB22
     /tmp/cc7i3pbr.s:38     .text:0000000000000020 .LBE22
     /tmp/cc7i3pbr.s:2591   .debug_loc:0000000000000444 .LLST6
     /tmp/cc7i3pbr.s:2599   .debug_loc:0000000000000468 .LLST7
     /tmp/cc7i3pbr.s:56     .text:0000000000000038 .LBB24
     /tmp/cc7i3pbr.s:63     .text:000000000000003c .LBE24
     /tmp/cc7i3pbr.s:2606   .debug_loc:000000000000048b .LLST8
     /tmp/cc7i3pbr.s:82     .text:0000000000000050 .LBB26
     /tmp/cc7i3pbr.s:89     .text:0000000000000054 .LBE26
     /tmp/cc7i3pbr.s:2613   .debug_loc:00000000000004ae .LLST9
     /tmp/cc7i3pbr.s:2620   .debug_loc:00000000000004d1 .LLST10
     /tmp/cc7i3pbr.s:101    .text:0000000000000064 .LBB28
     /tmp/cc7i3pbr.s:108    .text:0000000000000068 .LBE28
     /tmp/cc7i3pbr.s:2627   .debug_loc:00000000000004f4 .LLST11
     /tmp/cc7i3pbr.s:2634   .debug_loc:0000000000000517 .LLST12
     /tmp/cc7i3pbr.s:123    .text:0000000000000078 .LBB30
     /tmp/cc7i3pbr.s:130    .text:000000000000007c .LBE30
     /tmp/cc7i3pbr.s:2641   .debug_loc:000000000000053a .LLST13
     /tmp/cc7i3pbr.s:2648   .debug_loc:000000000000055d .LLST14
     /tmp/cc7i3pbr.s:145    .text:0000000000000090 .LBB32
     /tmp/cc7i3pbr.s:152    .text:0000000000000094 .LBE32
     /tmp/cc7i3pbr.s:2655   .debug_loc:0000000000000580 .LLST15
     /tmp/cc7i3pbr.s:2662   .debug_loc:00000000000005a3 .LLST16
     /tmp/cc7i3pbr.s:2870   .debug_str:00000000000004fa .LASF100
     /tmp/cc7i3pbr.s:2922   .debug_str:0000000000000736 .LASF101
     /tmp/cc7i3pbr.s:208    .text:00000000000000d0 .LVL29
     /tmp/cc7i3pbr.s:252    .text:00000000000000fc .LVL34
     /tmp/cc7i3pbr.s:260    .text:0000000000000100 .LVL35
     /tmp/cc7i3pbr.s:273    .text:0000000000000108 .LVL37
     /tmp/cc7i3pbr.s:221    .text:00000000000000d8 .LVL31
     /tmp/cc7i3pbr.s:294    .text:000000000000012c .LVL40
     /tmp/cc7i3pbr.s:311    .text:0000000000000144 .LVL41
     /tmp/cc7i3pbr.s:202    .text:00000000000000cc .LVL28
     /tmp/cc7i3pbr.s:214    .text:00000000000000d4 .LVL30
     /tmp/cc7i3pbr.s:229    .text:00000000000000dc .LVL32
     /tmp/cc7i3pbr.s:235    .text:00000000000000e0 .LVL33
     /tmp/cc7i3pbr.s:267    .text:0000000000000104 .LVL36
     /tmp/cc7i3pbr.s:275    .text:000000000000010c .LVL38
     /tmp/cc7i3pbr.s:14     .text:0000000000000000 .LVL0
     /tmp/cc7i3pbr.s:96     .text:0000000000000060 .LVL10
     /tmp/cc7i3pbr.s:98     .text:0000000000000064 .LVL11
     /tmp/cc7i3pbr.s:134    .text:0000000000000080 .LVL16
     /tmp/cc7i3pbr.s:136    .text:0000000000000084 .LVL17
     /tmp/cc7i3pbr.s:159    .text:000000000000009c .LVL21
     /tmp/cc7i3pbr.s:161    .text:00000000000000a0 .LVL22
     /tmp/cc7i3pbr.s:165    .text:00000000000000a4 .LVL23
     /tmp/cc7i3pbr.s:167    .text:00000000000000a8 .LVL24
     /tmp/cc7i3pbr.s:171    .text:00000000000000ac .LVL25
     /tmp/cc7i3pbr.s:173    .text:00000000000000b0 .LVL26
     /tmp/cc7i3pbr.s:177    .text:00000000000000b4 .LVL27
     /tmp/cc7i3pbr.s:49     .text:0000000000000034 .LVL3
GAS LISTING /tmp/cc7i3pbr.s 			page 16


     /tmp/cc7i3pbr.s:79     .text:0000000000000050 .LVL8
     /tmp/cc7i3pbr.s:69     .text:0000000000000044 .LVL6
     /tmp/cc7i3pbr.s:122    .text:0000000000000078 .LVL14
     /tmp/cc7i3pbr.s:61     .text:000000000000003c .LVL5
     /tmp/cc7i3pbr.s:142    .text:0000000000000090 .LVL19
     /tmp/cc7i3pbr.s:76     .text:000000000000004c .LVL7
     /tmp/cc7i3pbr.s:117    .text:0000000000000074 .LVL13
     /tmp/cc7i3pbr.s:140    .text:000000000000008c .LVL18
     /tmp/cc7i3pbr.s:28     .text:0000000000000018 .LVL1
     /tmp/cc7i3pbr.s:36     .text:0000000000000020 .LVL2
     /tmp/cc7i3pbr.s:55     .text:0000000000000038 .LVL4
     /tmp/cc7i3pbr.s:87     .text:0000000000000054 .LVL9
     /tmp/cc7i3pbr.s:106    .text:0000000000000068 .LVL12
     /tmp/cc7i3pbr.s:128    .text:000000000000007c .LVL15
     /tmp/cc7i3pbr.s:150    .text:0000000000000094 .LVL20
     /tmp/cc7i3pbr.s:333    .debug_info:0000000000000000 .Ldebug_info0
     /tmp/cc7i3pbr.s:237    .text:00000000000000e0 .LBE38
     /tmp/cc7i3pbr.s:255    .text:00000000000000fc .LBB41
     /tmp/cc7i3pbr.s:262    .text:0000000000000100 .LBE41

UNDEFINED SYMBOLS
_ZN9Scheduler3putEP3TCB
