GAS LISTING /tmp/cc7i3pbr.s 			page 1


   1              		.file	"sleeping.cpp"
   2              		.option pic
   3              		.option norelax
   4              		.text
   5              	.Ltext0:
   6              		.align	2
   7              		.globl	_ZN8sleeping3putEP3TCBi
   9              	_ZN8sleeping3putEP3TCBi:
  10              	.LFB23:
  11              		.file 1 "src/sleeping.cpp"
   1:src/sleeping.cpp **** //
   2:src/sleeping.cpp **** // Created by os on 6/23/23.
   3:src/sleeping.cpp **** //
   4:src/sleeping.cpp **** 
   5:src/sleeping.cpp **** 
   6:src/sleeping.cpp **** #include "../h/sleeping.hpp"
   7:src/sleeping.cpp **** #include "../h/TCB.hpp"
   8:src/sleeping.cpp **** TCB* sleeping::head = nullptr;
   9:src/sleeping.cpp **** 
  10:src/sleeping.cpp **** int sleeping::put(TCB *thrd, int sleep_time)
  11:src/sleeping.cpp **** {
  12              		.loc 1 11 1
  13              		.cfi_startproc
  14              	.LVL0:
  15 0000 130101FF 		addi	sp,sp,-16
  16              		.cfi_def_cfa_offset 16
  17 0004 23348100 		sd	s0,8(sp)
  18              		.cfi_offset 8, -8
  19 0008 13040101 		addi	s0,sp,16
  20              		.cfi_def_cfa 8, 0
  12:src/sleeping.cpp ****     // Exceptional situation check
  13:src/sleeping.cpp ****     if(sleep_time < 0) return -1;
  21              		.loc 1 13 5
  22 000c 63CA0508 		bltz	a1,.L8
  14:src/sleeping.cpp ****     if(thrd == nullptr) return -1;
  23              		.loc 1 14 5
  24 0010 630C0508 		beqz	a0,.L9
  15:src/sleeping.cpp ****     if(sleep_time == 0) return 0;
  25              		.loc 1 15 5
  26 0014 638E0508 		beqz	a1,.L10
  16:src/sleeping.cpp **** 
  17:src/sleeping.cpp ****     // Initialize data
  18:src/sleeping.cpp ****     thrd->setSleeping(true);
  27              		.loc 1 18 5
  28              	.LVL1:
  29              	.LBB22:
  30              	.LBB23:
  31              		.file 2 "src/../h/TCB.hpp"
   1:src/../h/TCB.hpp **** //
   2:src/../h/TCB.hpp **** // Created by os on 6/20/23.
   3:src/../h/TCB.hpp **** //
   4:src/../h/TCB.hpp **** 
   5:src/../h/TCB.hpp **** #ifndef PROJECT_BASE_V1_1_TCB_HPP
   6:src/../h/TCB.hpp **** #define PROJECT_BASE_V1_1_TCB_HPP
   7:src/../h/TCB.hpp **** 
   8:src/../h/TCB.hpp **** #include "../lib/hw.h"
   9:src/../h/TCB.hpp **** #include "syscall_c.hpp"
GAS LISTING /tmp/cc7i3pbr.s 			page 2


  10:src/../h/TCB.hpp **** #include "../h/Scheduler.hpp"
  11:src/../h/TCB.hpp **** #include "list.hpp"
  12:src/../h/TCB.hpp **** 
  13:src/../h/TCB.hpp **** // ideja za klasu preuzeta sa vezbi
  14:src/../h/TCB.hpp **** class TCB {
  15:src/../h/TCB.hpp **** public:
  16:src/../h/TCB.hpp ****     TCB* next;
  17:src/../h/TCB.hpp ****     enum State{FINISHED, RUNNING, BLOCKED, SLEEPING};
  18:src/../h/TCB.hpp ****     using Body = void(*)(void*);
  19:src/../h/TCB.hpp ****     using Argument = void*;
  20:src/../h/TCB.hpp **** 
  21:src/../h/TCB.hpp ****     static TCB* createThread(Body body, Argument argument, uint8* st);
  22:src/../h/TCB.hpp **** 
  23:src/../h/TCB.hpp ****     // Finished
  24:src/../h/TCB.hpp ****     bool isFinished() const{ return this->state == FINISHED; }
  25:src/../h/TCB.hpp ****     void setFinished(bool finished){ this->state = finished? FINISHED:RUNNING; }
  26:src/../h/TCB.hpp **** 
  27:src/../h/TCB.hpp ****     // Blocked
  28:src/../h/TCB.hpp ****     bool isBlocked() const { return this->state == BLOCKED; }
  29:src/../h/TCB.hpp ****     void setBlocked(bool blocked) { this->state = blocked?BLOCKED:RUNNING; }
  30:src/../h/TCB.hpp **** 
  31:src/../h/TCB.hpp ****     // Sleeping
  32:src/../h/TCB.hpp ****     bool isSleeping() const { return this->state == SLEEPING;}
  33:src/../h/TCB.hpp ****     void setSleeping(bool sleeping) { this->state = sleeping?SLEEPING:RUNNING; }
  32              		.loc 2 33 39
  33              		.loc 2 33 51 is_stmt 0
  34 0018 93073000 		li	a5,3
  35 001c 2324F502 		sw	a5,40(a0)
  36              	.LVL2:
  37              	.LBE23:
  38              	.LBE22:
  19:src/sleeping.cpp ****     thrd->next = nullptr;
  39              		.loc 1 19 5 is_stmt 1
  40              		.loc 1 19 16 is_stmt 0
  41 0020 23300500 		sd	zero,0(a0)
  20:src/sleeping.cpp **** 
  21:src/sleeping.cpp ****     // Check if list is empty
  22:src/sleeping.cpp ****     if(head == nullptr){
  42              		.loc 1 22 5 is_stmt 1
  43              		.loc 1 22 13 is_stmt 0
  44 0024 97070000 		ld	a5,.LANCHOR0
  44      83B70700 
  45              		.loc 1 22 5
  46 002c 63820702 		beqz	a5,.L13
  23:src/sleeping.cpp ****         thrd->setSleepTime(sleep_time);
  24:src/sleeping.cpp ****         head = thrd;
  25:src/sleeping.cpp ****         return 0;
  26:src/sleeping.cpp ****     }
  27:src/sleeping.cpp **** 
  28:src/sleeping.cpp ****     // Time2 is sleep time that will be decreased as we go through the list trying to find
  29:src/sleeping.cpp ****     // the first sleeping thread with bigger or equal time.
  30:src/sleeping.cpp ****     int time2 = sleep_time;
  31:src/sleeping.cpp **** 
  32:src/sleeping.cpp ****     // compareTime is a variable that stores the sleeping time of the current as
  33:src/sleeping.cpp ****     // we go through all of them
  34:src/sleeping.cpp ****     int compareTime = 0;
  35:src/sleeping.cpp **** 
GAS LISTING /tmp/cc7i3pbr.s 			page 3


  36:src/sleeping.cpp ****     // prethodni is a thread just before the current one in for loop.
  37:src/sleeping.cpp ****     // temp is the current thread in for loop.
  38:src/sleeping.cpp ****     TCB* prethodni = 0;
  47              		.loc 1 38 10
  48 0030 93060000 		li	a3,0
  49              	.LVL3:
  50              	.L3:
  39:src/sleeping.cpp ****     TCB* temp = head;
  40:src/sleeping.cpp **** 
  41:src/sleeping.cpp ****     // Main Algorithm
  42:src/sleeping.cpp ****     for(;temp != nullptr; temp = temp->next){
  51              		.loc 1 42 5 is_stmt 1 discriminator 1
  52              		.loc 1 42 15 discriminator 1
  53 0034 638E0704 		beqz	a5,.L4
  43:src/sleeping.cpp ****         compareTime = temp->getSleepTime();
  54              		.loc 1 43 9
  55              	.LVL4:
  56              	.LBB24:
  57              	.LBB25:
  34:src/../h/TCB.hpp **** 
  35:src/../h/TCB.hpp ****     // Running
  36:src/../h/TCB.hpp ****     bool isRunning(){ return this->state == RUNNING;}
  37:src/../h/TCB.hpp **** 
  38:src/../h/TCB.hpp ****     // Sleep time
  39:src/../h/TCB.hpp ****     void setSleepTime(int time1) { this->sleep_time = time1; }
  40:src/../h/TCB.hpp ****     int getSleepTime() { return this->sleep_time; }
  58              		.loc 2 40 26
  59              		.loc 2 40 39 is_stmt 0
  60 0038 03A70704 		lw	a4,64(a5)
  61              	.LVL5:
  62              	.LBE25:
  63              	.LBE24:
  44:src/sleeping.cpp ****         if(time2 <= compareTime){
  64              		.loc 1 44 9 is_stmt 1
  65 003c 6354B702 		ble	a1,a4,.L14
  45:src/sleeping.cpp ****             thrd->setSleepTime(time2);
  46:src/sleeping.cpp ****             thrd->next = temp;
  47:src/sleeping.cpp ****             (prethodni? prethodni->next:head) = thrd;
  48:src/sleeping.cpp **** //            for(;temp != nullptr; temp = temp->next){
  49:src/sleeping.cpp **** //                compareTime = temp->getSleepTime();
  50:src/sleeping.cpp **** //                if(compareTime > 0) temp->setSleepTime(compareTime-time2);
  51:src/sleeping.cpp **** //                else break;
  52:src/sleeping.cpp **** //                if (temp->getSleepTime() == 0) break;
  53:src/sleeping.cpp **** //            }
  54:src/sleeping.cpp ****             temp->setSleepTime(compareTime-time2);
  55:src/sleeping.cpp ****             return 0;
  56:src/sleeping.cpp ****         }
  57:src/sleeping.cpp ****         time2 -= compareTime;
  66              		.loc 1 57 9
  67              		.loc 1 57 15 is_stmt 0
  68 0040 BB85E540 		subw	a1,a1,a4
  69              	.LVL6:
  58:src/sleeping.cpp ****         prethodni = temp;
  70              		.loc 1 58 9 is_stmt 1
  42:src/sleeping.cpp ****         compareTime = temp->getSleepTime();
  71              		.loc 1 42 5
  72              		.loc 1 58 19 is_stmt 0
GAS LISTING /tmp/cc7i3pbr.s 			page 4


  73 0044 93860700 		mv	a3,a5
  42:src/sleeping.cpp ****         compareTime = temp->getSleepTime();
  74              		.loc 1 42 32
  75 0048 83B70700 		ld	a5,0(a5)
  76              	.LVL7:
  42:src/sleeping.cpp ****         compareTime = temp->getSleepTime();
  77              		.loc 1 42 5
  78 004c 6FF09FFE 		j	.L3
  79              	.LVL8:
  80              	.L13:
  23:src/sleeping.cpp ****         head = thrd;
  81              		.loc 1 23 9 is_stmt 1
  82              	.LBB26:
  83              	.LBB27:
  39:src/../h/TCB.hpp ****     int getSleepTime() { return this->sleep_time; }
  84              		.loc 2 39 36
  39:src/../h/TCB.hpp ****     int getSleepTime() { return this->sleep_time; }
  85              		.loc 2 39 53 is_stmt 0
  86 0050 2320B504 		sw	a1,64(a0)
  87              	.LVL9:
  88              	.LBE27:
  89              	.LBE26:
  24:src/sleeping.cpp ****         return 0;
  90              		.loc 1 24 9 is_stmt 1
  24:src/sleeping.cpp ****         return 0;
  91              		.loc 1 24 14 is_stmt 0
  92 0054 97070000 		sd	a0,.LANCHOR0,a5
  92      23B0A700 
  25:src/sleeping.cpp ****     }
  93              		.loc 1 25 9 is_stmt 1
  25:src/sleeping.cpp ****     }
  94              		.loc 1 25 16 is_stmt 0
  95 005c 13050000 		li	a0,0
  96              	.LVL10:
  97 0060 6F004005 		j	.L2
  98              	.LVL11:
  99              	.L14:
  45:src/sleeping.cpp ****             thrd->next = temp;
 100              		.loc 1 45 13 is_stmt 1
 101              	.LBB28:
 102              	.LBB29:
  39:src/../h/TCB.hpp ****     int getSleepTime() { return this->sleep_time; }
 103              		.loc 2 39 36
  39:src/../h/TCB.hpp ****     int getSleepTime() { return this->sleep_time; }
 104              		.loc 2 39 53 is_stmt 0
 105 0064 2320B504 		sw	a1,64(a0)
 106              	.LVL12:
 107              	.LBE29:
 108              	.LBE28:
  46:src/sleeping.cpp ****             (prethodni? prethodni->next:head) = thrd;
 109              		.loc 1 46 13 is_stmt 1
  46:src/sleeping.cpp ****             (prethodni? prethodni->next:head) = thrd;
 110              		.loc 1 46 24 is_stmt 0
 111 0068 2330F500 		sd	a5,0(a0)
  47:src/sleeping.cpp **** //            for(;temp != nullptr; temp = temp->next){
 112              		.loc 1 47 13 is_stmt 1
  47:src/sleeping.cpp **** //            for(;temp != nullptr; temp = temp->next){
GAS LISTING /tmp/cc7i3pbr.s 			page 5


 113              		.loc 1 47 47 is_stmt 0
 114 006c 638C0600 		beqz	a3,.L6
  47:src/sleeping.cpp **** //            for(;temp != nullptr; temp = temp->next){
 115              		.loc 1 47 47 discriminator 1
 116 0070 23B0A600 		sd	a0,0(a3)
 117              	.LVL13:
 118              	.L7:
  54:src/sleeping.cpp ****             return 0;
 119              		.loc 1 54 13 is_stmt 1
  54:src/sleeping.cpp ****             return 0;
 120              		.loc 1 54 31 is_stmt 0
 121 0074 BB05B740 		subw	a1,a4,a1
 122              	.LVL14:
 123              	.LBB30:
 124              	.LBB31:
  39:src/../h/TCB.hpp ****     int getSleepTime() { return this->sleep_time; }
 125              		.loc 2 39 36 is_stmt 1
  39:src/../h/TCB.hpp ****     int getSleepTime() { return this->sleep_time; }
 126              		.loc 2 39 53 is_stmt 0
 127 0078 23A0B704 		sw	a1,64(a5)
 128              	.LVL15:
 129              	.LBE31:
 130              	.LBE30:
  55:src/sleeping.cpp ****         }
 131              		.loc 1 55 13 is_stmt 1
  55:src/sleeping.cpp ****         }
 132              		.loc 1 55 20 is_stmt 0
 133 007c 13050000 		li	a0,0
 134              	.LVL16:
 135 0080 6F004003 		j	.L2
 136              	.LVL17:
 137              	.L6:
  47:src/sleeping.cpp **** //            for(;temp != nullptr; temp = temp->next){
 138              		.loc 1 47 47 discriminator 2
 139 0084 97060000 		sd	a0,.LANCHOR0,a3
 139      23B0A600 
 140              	.LVL18:
 141 008c 6FF09FFE 		j	.L7
 142              	.LVL19:
 143              	.L4:
  59:src/sleeping.cpp ****     }
  60:src/sleeping.cpp **** 
  61:src/sleeping.cpp ****     // If we get to this section of the code, it means that there is no thread in
  62:src/sleeping.cpp ****     // sleeping list with larger sleeping time, which means that we put our thread at
  63:src/sleeping.cpp ****     // the end of the list.
  64:src/sleeping.cpp ****     thrd->setSleepTime(time2);
 144              		.loc 1 64 5 is_stmt 1
 145              	.LBB32:
 146              	.LBB33:
  39:src/../h/TCB.hpp ****     int getSleepTime() { return this->sleep_time; }
 147              		.loc 2 39 36
  39:src/../h/TCB.hpp ****     int getSleepTime() { return this->sleep_time; }
 148              		.loc 2 39 53 is_stmt 0
 149 0090 2320B504 		sw	a1,64(a0)
 150              	.LVL20:
 151              	.LBE33:
 152              	.LBE32:
GAS LISTING /tmp/cc7i3pbr.s 			page 6


  65:src/sleeping.cpp ****     prethodni->next = thrd;
 153              		.loc 1 65 5 is_stmt 1
 154              		.loc 1 65 21 is_stmt 0
 155 0094 23B0A600 		sd	a0,0(a3)
  66:src/sleeping.cpp **** 
  67:src/sleeping.cpp ****     return 0;
 156              		.loc 1 67 5 is_stmt 1
 157              		.loc 1 67 12 is_stmt 0
 158 0098 13050000 		li	a0,0
 159              	.LVL21:
 160 009c 6F008001 		j	.L2
 161              	.LVL22:
 162              	.L8:
  13:src/sleeping.cpp ****     if(thrd == nullptr) return -1;
 163              		.loc 1 13 32
 164 00a0 1305F0FF 		li	a0,-1
 165              	.LVL23:
 166 00a4 6F000001 		j	.L2
 167              	.LVL24:
 168              	.L9:
  14:src/sleeping.cpp ****     if(sleep_time == 0) return 0;
 169              		.loc 1 14 33
 170 00a8 1305F0FF 		li	a0,-1
 171              	.LVL25:
 172 00ac 6F008000 		j	.L2
 173              	.LVL26:
 174              	.L10:
  15:src/sleeping.cpp **** 
 175              		.loc 1 15 32
 176 00b0 13850500 		mv	a0,a1
 177              	.LVL27:
 178              	.L2:
  68:src/sleeping.cpp **** }
 179              		.loc 1 68 1
 180 00b4 03348100 		ld	s0,8(sp)
 181              		.cfi_restore 8
 182              		.cfi_def_cfa 2, 16
 183 00b8 13010101 		addi	sp,sp,16
 184              		.cfi_def_cfa_offset 0
 185 00bc 67800000 		jr	ra
 186              		.cfi_endproc
 187              	.LFE23:
 189              		.align	2
 190              		.globl	_ZN8sleeping12timeDecreaseEv
 192              	_ZN8sleeping12timeDecreaseEv:
 193              	.LFB24:
  69:src/sleeping.cpp **** 
  70:src/sleeping.cpp **** void sleeping::timeDecrease() {
 194              		.loc 1 70 31 is_stmt 1
 195              		.cfi_startproc
  71:src/sleeping.cpp ****     // Check if sleeping list is empty
  72:src/sleeping.cpp ****     if(head == nullptr) return;
 196              		.loc 1 72 5
 197              		.loc 1 72 13 is_stmt 0
 198 00c0 17050000 		ld	a0,.LANCHOR0
 198      03350500 
 199              		.loc 1 72 5
GAS LISTING /tmp/cc7i3pbr.s 			page 7


 200 00c8 630E0506 		beqz	a0,.L19
  73:src/sleeping.cpp **** 
  74:src/sleeping.cpp ****     // Update sleep time of the first thread in list
  75:src/sleeping.cpp ****     int sleeptime = head->getSleepTime();
 201              		.loc 1 75 5 is_stmt 1
 202              	.LVL28:
 203              	.LBB34:
 204              	.LBB35:
 205              		.loc 2 40 26
 206              		.loc 2 40 39 is_stmt 0
 207 00cc 83270504 		lw	a5,64(a0)
 208              	.LVL29:
 209              	.LBE35:
 210              	.LBE34:
  76:src/sleeping.cpp ****     sleeptime--;
 211              		.loc 1 76 5 is_stmt 1
 212              		.loc 1 76 14 is_stmt 0
 213 00d0 9B87F7FF 		addiw	a5,a5,-1
 214              	.LVL30:
  77:src/sleeping.cpp ****     head->setSleepTime(sleeptime);
 215              		.loc 1 77 5 is_stmt 1
 216              	.LBB36:
 217              	.LBB37:
  39:src/../h/TCB.hpp ****     int getSleepTime() { return this->sleep_time; }
 218              		.loc 2 39 36
  39:src/../h/TCB.hpp ****     int getSleepTime() { return this->sleep_time; }
 219              		.loc 2 39 53 is_stmt 0
 220 00d4 2320F504 		sw	a5,64(a0)
 221              	.LVL31:
 222              	.LBE37:
 223              	.LBE36:
  78:src/sleeping.cpp **** 
  79:src/sleeping.cpp ****     // temp is the current thread in the sleeping list as we go through all of them
  80:src/sleeping.cpp ****     TCB* temp = head;
 224              		.loc 1 80 5 is_stmt 1
  81:src/sleeping.cpp ****     while (true){
 225              		.loc 1 81 5
  82:src/sleeping.cpp ****         // Check if we reached the end of the list
  83:src/sleeping.cpp ****         if(temp == nullptr) break;
 226              		.loc 1 83 9
 227 00d8 63060506 		beqz	a0,.L19
  84:src/sleeping.cpp **** 
  85:src/sleeping.cpp ****         sleeptime = temp->getSleepTime();
 228              		.loc 1 85 9
 229              	.LVL32:
 230              	.LBB38:
 231              	.LBB39:
 232              		.loc 2 40 26
 233              		.loc 2 40 39 is_stmt 0
 234 00dc 83270504 		lw	a5,64(a0)
 235              	.LVL33:
 236              	.LBE39:
 237              	.LBE38:
  86:src/sleeping.cpp ****         if(sleeptime <= 0){ // We can put == as well, this just makes it more secure
 238              		.loc 1 86 9 is_stmt 1
 239 00e0 6342F006 		bgtz	a5,.L19
  70:src/sleeping.cpp ****     // Check if sleeping list is empty
GAS LISTING /tmp/cc7i3pbr.s 			page 8


 240              		.loc 1 70 31 is_stmt 0
 241 00e4 130101FE 		addi	sp,sp,-32
 242              		.cfi_def_cfa_offset 32
 243 00e8 233C1100 		sd	ra,24(sp)
 244 00ec 23388100 		sd	s0,16(sp)
 245 00f0 23349100 		sd	s1,8(sp)
 246              		.cfi_offset 1, -8
 247              		.cfi_offset 8, -16
 248              		.cfi_offset 9, -24
 249 00f4 13040102 		addi	s0,sp,32
 250              		.cfi_def_cfa 8, 0
 251 00f8 6F00C000 		j	.L22
 252              	.LVL34:
 253              	.L25:
  85:src/sleeping.cpp ****         if(sleeptime <= 0){ // We can put == as well, this just makes it more secure
 254              		.loc 1 85 9 is_stmt 1
 255              	.LBB41:
 256              	.LBB40:
 257              		.loc 2 40 26
 258              		.loc 2 40 39 is_stmt 0
 259 00fc 83270504 		lw	a5,64(a0)
 260              	.LVL35:
 261              	.LBE40:
 262              	.LBE41:
 263              		.loc 1 86 9 is_stmt 1
 264 0100 6348F002 		bgtz	a5,.L15
 265              	.L22:
  87:src/sleeping.cpp ****             // Putting the sleeping thread back in scheduler
  88:src/sleeping.cpp ****             temp->setSleeping(false);
 266              		.loc 1 88 13
 267              	.LVL36:
 268              	.LBB42:
 269              	.LBB43:
  33:src/../h/TCB.hpp **** 
 270              		.loc 2 33 39
  33:src/../h/TCB.hpp **** 
 271              		.loc 2 33 51 is_stmt 0
 272 0104 93071000 		li	a5,1
 273              	.LVL37:
 274 0108 2324F502 		sw	a5,40(a0)
 275              	.LVL38:
 276              	.LBE43:
 277              	.LBE42:
  89:src/sleeping.cpp ****             head = temp->next;
 278              		.loc 1 89 13 is_stmt 1
 279              		.loc 1 89 26 is_stmt 0
 280 010c 83370500 		ld	a5,0(a0)
 281              		.loc 1 89 18
 282 0110 97040000 		lla	s1,.LANCHOR0
 282      93840400 
 283 0118 23B0F400 		sd	a5,0(s1)
  90:src/sleeping.cpp ****             temp->next = 0;
 284              		.loc 1 90 13 is_stmt 1
 285              		.loc 1 90 24 is_stmt 0
 286 011c 23300500 		sd	zero,0(a0)
  91:src/sleeping.cpp ****             Scheduler::put(temp);
 287              		.loc 1 91 13 is_stmt 1
GAS LISTING /tmp/cc7i3pbr.s 			page 9


 288              		.loc 1 91 27 is_stmt 0
 289 0120 97000000 		call	_ZN9Scheduler3putEP3TCB@plt
 289      E7800000 
 290              	.LVL39:
  92:src/sleeping.cpp ****             temp = head;
 291              		.loc 1 92 13 is_stmt 1
 292              		.loc 1 92 18 is_stmt 0
 293 0128 03B50400 		ld	a0,0(s1)
 294              	.LVL40:
  81:src/sleeping.cpp ****         // Check if we reached the end of the list
 295              		.loc 1 81 5 is_stmt 1
  81:src/sleeping.cpp ****         // Check if we reached the end of the list
 296              		.loc 1 81 5
  83:src/sleeping.cpp **** 
 297              		.loc 1 83 9
 298 012c E31805FC 		bnez	a0,.L25
 299              	.L15:
  93:src/sleeping.cpp ****         } else break;
  94:src/sleeping.cpp ****     }
  95:src/sleeping.cpp **** }...
 300              		.loc 1 95 1 is_stmt 0
 301 0130 83308101 		ld	ra,24(sp)
 302              		.cfi_restore 1
 303 0134 03340101 		ld	s0,16(sp)
 304              		.cfi_restore 8
 305              		.cfi_def_cfa 2, 32
 306 0138 83348100 		ld	s1,8(sp)
 307              		.cfi_restore 9
 308 013c 13010102 		addi	sp,sp,32
 309              		.cfi_def_cfa_offset 0
 310 0140 67800000 		jr	ra
 311              	.LVL41:
 312              	.L19:
 313 0144 67800000 		ret
 314              		.cfi_endproc
 315              	.LFE24:
 317              		.globl	_ZN8sleeping4headE
 318              		.bss
 319              		.align	3
 320              		.set	.LANCHOR0,. + 0
 323              	_ZN8sleeping4headE:
 324 0000 00000000 		.zero	8
 324      00000000 
 325              		.text
 326              	.Letext0:
 327              		.file 3 "src/../h/sleeping.hpp"
 328              		.file 4 "src/../h/../lib/hw.h"
 329              		.file 5 "src/../h/../h/Scheduler.hpp"
 330              		.file 6 "src/../h/list.hpp"
 331              		.file 7 "src/../h/syscall_c.hpp"
GAS LISTING /tmp/cc7i3pbr.s 			page 10

