GAS LISTING /tmp/cc6JPqsM.s 			page 1


   1              		.file	"syscall_cpp.cpp"
   2              		.option pic
   3              		.option norelax
   4              		.text
   5              	.Ltext0:
   6              		.section	.text._ZN6Thread3runEv,"axG",@progbits,_ZN6Thread3runEv,comdat
   7              		.align	2
   8              		.weak	_ZN6Thread3runEv
  10              	_ZN6Thread3runEv:
  11              	.LFB0:
  12              		.file 1 "src/../h/syscall_cpp.hpp"
   1:src/../h/syscall_cpp.hpp **** //
   2:src/../h/syscall_cpp.hpp **** // Created by os on 6/19/23.
   3:src/../h/syscall_cpp.hpp **** //
   4:src/../h/syscall_cpp.hpp **** 
   5:src/../h/syscall_cpp.hpp **** #ifndef PROJECT_BASE_V1_1_SYSCALL_CPP_HPP
   6:src/../h/syscall_cpp.hpp **** #define PROJECT_BASE_V1_1_SYSCALL_CPP_HPP
   7:src/../h/syscall_cpp.hpp **** 
   8:src/../h/syscall_cpp.hpp **** #include "syscall_c.hpp"
   9:src/../h/syscall_cpp.hpp **** 
  10:src/../h/syscall_cpp.hpp **** 
  11:src/../h/syscall_cpp.hpp **** class Thread {
  12:src/../h/syscall_cpp.hpp **** public:
  13:src/../h/syscall_cpp.hpp ****         Thread (void (*body)(void*), void* arg);
  14:src/../h/syscall_cpp.hpp ****         virtual ~Thread ();
  15:src/../h/syscall_cpp.hpp **** 
  16:src/../h/syscall_cpp.hpp ****         int start ();
  17:src/../h/syscall_cpp.hpp **** 
  18:src/../h/syscall_cpp.hpp ****         void join();
  19:src/../h/syscall_cpp.hpp **** 
  20:src/../h/syscall_cpp.hpp ****         static void dispatch ();
  21:src/../h/syscall_cpp.hpp ****         static int sleep (time_t);
  22:src/../h/syscall_cpp.hpp **** 
  23:src/../h/syscall_cpp.hpp **** protected:
  24:src/../h/syscall_cpp.hpp ****         Thread ();
  25:src/../h/syscall_cpp.hpp ****         virtual void run () {}
  13              		.loc 1 25 22
  14              		.cfi_startproc
  15              	.LVL0:
  16 0000 130101FF 		addi	sp,sp,-16
  17              		.cfi_def_cfa_offset 16
  18 0004 23348100 		sd	s0,8(sp)
  19              		.cfi_offset 8, -8
  20 0008 13040101 		addi	s0,sp,16
  21              		.cfi_def_cfa 8, 0
  22              		.loc 1 25 30 is_stmt 0
  23 000c 03348100 		ld	s0,8(sp)
  24              		.cfi_restore 8
  25              		.cfi_def_cfa 2, 16
  26 0010 13010101 		addi	sp,sp,16
  27              		.cfi_def_cfa_offset 0
  28 0014 67800000 		jr	ra
  29              		.cfi_endproc
  30              	.LFE0:
  32              		.section	.text._ZN14PeriodicThread18periodicActivationEv,"axG",@progbits,_ZN14PeriodicThread18peri
  33              		.align	2
  34              		.weak	_ZN14PeriodicThread18periodicActivationEv
GAS LISTING /tmp/cc6JPqsM.s 			page 2


  36              	_ZN14PeriodicThread18periodicActivationEv:
  37              	.LFB1:
  26:src/../h/syscall_cpp.hpp **** 
  27:src/../h/syscall_cpp.hpp **** private:
  28:src/../h/syscall_cpp.hpp ****         thread_t myHandle;
  29:src/../h/syscall_cpp.hpp ****         void (*body)(void*); void* arg;
  30:src/../h/syscall_cpp.hpp ****         static void runWrapper(void* thread);
  31:src/../h/syscall_cpp.hpp **** 
  32:src/../h/syscall_cpp.hpp **** };
  33:src/../h/syscall_cpp.hpp **** 
  34:src/../h/syscall_cpp.hpp **** class Semaphore {
  35:src/../h/syscall_cpp.hpp **** public:
  36:src/../h/syscall_cpp.hpp ****         Semaphore (unsigned init = 1);
  37:src/../h/syscall_cpp.hpp ****         virtual ~Semaphore ();
  38:src/../h/syscall_cpp.hpp **** 
  39:src/../h/syscall_cpp.hpp ****         int wait ();
  40:src/../h/syscall_cpp.hpp ****         int signal ();
  41:src/../h/syscall_cpp.hpp **** 
  42:src/../h/syscall_cpp.hpp **** private:
  43:src/../h/syscall_cpp.hpp ****         sem_t myHandle;
  44:src/../h/syscall_cpp.hpp **** };
  45:src/../h/syscall_cpp.hpp **** 
  46:src/../h/syscall_cpp.hpp **** class PeriodicThread : public Thread {
  47:src/../h/syscall_cpp.hpp **** public:
  48:src/../h/syscall_cpp.hpp ****     void terminate();
  49:src/../h/syscall_cpp.hpp **** 
  50:src/../h/syscall_cpp.hpp **** protected:
  51:src/../h/syscall_cpp.hpp ****     PeriodicThread(time_t period);
  52:src/../h/syscall_cpp.hpp **** 
  53:src/../h/syscall_cpp.hpp ****     virtual void periodicActivation() {}
  38              		.loc 1 53 18 is_stmt 1
  39              		.cfi_startproc
  40              	.LVL1:
  41 0000 130101FF 		addi	sp,sp,-16
  42              		.cfi_def_cfa_offset 16
  43 0004 23348100 		sd	s0,8(sp)
  44              		.cfi_offset 8, -8
  45 0008 13040101 		addi	s0,sp,16
  46              		.cfi_def_cfa 8, 0
  47              		.loc 1 53 40 is_stmt 0
  48 000c 03348100 		ld	s0,8(sp)
  49              		.cfi_restore 8
  50              		.cfi_def_cfa 2, 16
  51 0010 13010101 		addi	sp,sp,16
  52              		.cfi_def_cfa_offset 0
  53 0014 67800000 		jr	ra
  54              		.cfi_endproc
  55              	.LFE1:
  57              		.text
  58              		.align	2
  59              		.globl	_ZN6Thread10runWrapperEPv
  61              	_ZN6Thread10runWrapperEPv:
  62              	.LFB34:
  63              		.file 2 "src/syscall_cpp.cpp"
   1:src/syscall_cpp.cpp **** ////
   2:src/syscall_cpp.cpp **** //// Created by os on 6/19/23.
   3:src/syscall_cpp.cpp **** ////
GAS LISTING /tmp/cc6JPqsM.s 			page 3


   4:src/syscall_cpp.cpp **** 
   5:src/syscall_cpp.cpp **** #include "../h/syscall_cpp.hpp"
   6:src/syscall_cpp.cpp **** #include "../h/syscall_c.hpp"
   7:src/syscall_cpp.cpp **** #include "../h/TCB.hpp"
   8:src/syscall_cpp.cpp **** #include "../h/_sem.hpp"
   9:src/syscall_cpp.cpp **** 
  10:src/syscall_cpp.cpp **** Thread::Thread(void (*body)(void *), void *arg) {
  11:src/syscall_cpp.cpp ****     this->body = body;
  12:src/syscall_cpp.cpp ****     this->arg = arg;
  13:src/syscall_cpp.cpp ****     this->myHandle = nullptr;
  14:src/syscall_cpp.cpp **** }
  15:src/syscall_cpp.cpp **** 
  16:src/syscall_cpp.cpp **** void Thread::runWrapper(void* thrd){
  64              		.loc 2 16 36 is_stmt 1
  65              		.cfi_startproc
  66              	.LVL2:
  67 0000 130101FF 		addi	sp,sp,-16
  68              		.cfi_def_cfa_offset 16
  69 0004 23341100 		sd	ra,8(sp)
  70 0008 23308100 		sd	s0,0(sp)
  71              		.cfi_offset 1, -8
  72              		.cfi_offset 8, -16
  73 000c 13040101 		addi	s0,sp,16
  74              		.cfi_def_cfa 8, 0
  17:src/syscall_cpp.cpp ****     ((Thread*)thrd)->run();
  75              		.loc 2 17 5
  76              		.loc 2 17 26 is_stmt 0
  77 0010 83370500 		ld	a5,0(a0)
  78 0014 83B70701 		ld	a5,16(a5)
  79              		.loc 2 17 25
  80 0018 E7800700 		jalr	a5
  81              	.LVL3:
  18:src/syscall_cpp.cpp **** }
  82              		.loc 2 18 1
  83 001c 83308100 		ld	ra,8(sp)
  84              		.cfi_restore 1
  85 0020 03340100 		ld	s0,0(sp)
  86              		.cfi_restore 8
  87              		.cfi_def_cfa 2, 16
  88 0024 13010101 		addi	sp,sp,16
  89              		.cfi_def_cfa_offset 0
  90 0028 67800000 		jr	ra
  91              		.cfi_endproc
  92              	.LFE34:
  94              		.align	2
  95              		.globl	_ZN14PeriodicThread25periodicActivationWrapperEPv
  97              	_ZN14PeriodicThread25periodicActivationWrapperEPv:
  98              	.LFB49:
  19:src/syscall_cpp.cpp **** 
  20:src/syscall_cpp.cpp **** Thread::Thread(){
  21:src/syscall_cpp.cpp ****     this->body = &runWrapper;
  22:src/syscall_cpp.cpp ****     this->arg = this;
  23:src/syscall_cpp.cpp ****     this->myHandle = nullptr;
  24:src/syscall_cpp.cpp **** }
  25:src/syscall_cpp.cpp **** 
  26:src/syscall_cpp.cpp **** int Thread::start() {
  27:src/syscall_cpp.cpp ****     // myHandle is a thread_t type which is a TCB*, we give an adress of myHandle because
GAS LISTING /tmp/cc6JPqsM.s 			page 4


  28:src/syscall_cpp.cpp ****     // the system call thread_create requires TCB** as its first argument.
  29:src/syscall_cpp.cpp ****     return thread_create(&(this->myHandle), this->body,this->arg);
  30:src/syscall_cpp.cpp **** }
  31:src/syscall_cpp.cpp **** 
  32:src/syscall_cpp.cpp **** void Thread::join(){
  33:src/syscall_cpp.cpp ****     thread_join(this->myHandle);
  34:src/syscall_cpp.cpp **** }
  35:src/syscall_cpp.cpp **** 
  36:src/syscall_cpp.cpp **** void Thread::dispatch() {
  37:src/syscall_cpp.cpp ****     thread_dispatch();
  38:src/syscall_cpp.cpp **** }
  39:src/syscall_cpp.cpp **** 
  40:src/syscall_cpp.cpp **** int Thread::sleep(time_t t) {
  41:src/syscall_cpp.cpp ****     return time_sleep(t);
  42:src/syscall_cpp.cpp **** }
  43:src/syscall_cpp.cpp **** 
  44:src/syscall_cpp.cpp **** 
  45:src/syscall_cpp.cpp **** Thread::~Thread(){
  46:src/syscall_cpp.cpp ****     if(this->myHandle)
  47:src/syscall_cpp.cpp ****         delete myHandle;
  48:src/syscall_cpp.cpp **** }
  49:src/syscall_cpp.cpp **** 
  50:src/syscall_cpp.cpp **** PeriodicThread::PeriodicThread(time_t period) : Thread(&periodicActivationWrapper,this),
  51:src/syscall_cpp.cpp ****                                                 period(period), state(RUNNING){}
  52:src/syscall_cpp.cpp **** 
  53:src/syscall_cpp.cpp **** void PeriodicThread::periodicActivationWrapper(void * thrd) {
  99              		.loc 2 53 61 is_stmt 1
 100              		.cfi_startproc
 101              	.LVL4:
 102 002c 130101FE 		addi	sp,sp,-32
 103              		.cfi_def_cfa_offset 32
 104 0030 233C1100 		sd	ra,24(sp)
 105 0034 23388100 		sd	s0,16(sp)
 106 0038 23349100 		sd	s1,8(sp)
 107              		.cfi_offset 1, -8
 108              		.cfi_offset 8, -16
 109              		.cfi_offset 9, -24
 110 003c 13040102 		addi	s0,sp,32
 111              		.cfi_def_cfa 8, 0
 112 0040 93040500 		mv	s1,a0
 113              	.LVL5:
 114              	.L9:
  54:src/syscall_cpp.cpp ****     // After the thread gets terminated, it will simply leave periodicActivationWrapper,
  55:src/syscall_cpp.cpp ****     // and then automatically will leave the run function which will return into tcb threadWrapper
  56:src/syscall_cpp.cpp ****     // threadWrapper itself will finish the thread making sure it doesn't get back into the schedul
  57:src/syscall_cpp.cpp ****     while(   ((PeriodicThread*)thrd)->state == RUNNING  ){
 115              		.loc 2 57 5
 116              		.loc 2 57 45
 117              		.loc 2 57 39 is_stmt 0
 118 0044 83A78402 		lw	a5,40(s1)
 119              		.loc 2 57 45
 120 0048 63920702 		bnez	a5,.L7
  58:src/syscall_cpp.cpp ****         ((PeriodicThread*)thrd)->periodicActivation();
 121              		.loc 2 58 9 is_stmt 1
 122              		.loc 2 58 53 is_stmt 0
 123 004c 83B70400 		ld	a5,0(s1)
 124 0050 83B78701 		ld	a5,24(a5)
GAS LISTING /tmp/cc6JPqsM.s 			page 5


 125              		.loc 2 58 52
 126 0054 13850400 		mv	a0,s1
 127 0058 E7800700 		jalr	a5
 128              	.LVL6:
  59:src/syscall_cpp.cpp ****         time_sleep(((PeriodicThread*)thrd)->period);
 129              		.loc 2 59 9 is_stmt 1
 130              		.loc 2 59 19 is_stmt 0
 131 005c 03B50402 		ld	a0,32(s1)
 132 0060 97000000 		call	_Z10time_sleepm@plt
 132      E7800000 
 133              	.LVL7:
  57:src/syscall_cpp.cpp ****         ((PeriodicThread*)thrd)->periodicActivation();
 134              		.loc 2 57 5
 135 0068 6FF0DFFD 		j	.L9
 136              	.L7:
  60:src/syscall_cpp.cpp ****     }
  61:src/syscall_cpp.cpp **** }
 137              		.loc 2 61 1
 138 006c 83308101 		ld	ra,24(sp)
 139              		.cfi_restore 1
 140 0070 03340101 		ld	s0,16(sp)
 141              		.cfi_restore 8
 142              		.cfi_def_cfa 2, 32
 143 0074 83348100 		ld	s1,8(sp)
 144              		.cfi_restore 9
 145              	.LVL8:
 146 0078 13010102 		addi	sp,sp,32
 147              		.cfi_def_cfa_offset 0
 148 007c 67800000 		jr	ra
 149              		.cfi_endproc
 150              	.LFE49:
 152              		.align	2
 153              		.globl	_ZN6ThreadD2Ev
 155              	_ZN6ThreadD2Ev:
 156              	.LFB43:
  45:src/syscall_cpp.cpp ****     if(this->myHandle)
 157              		.loc 2 45 1 is_stmt 1
 158              		.cfi_startproc
 159              	.LVL9:
 160 0080 130101FE 		addi	sp,sp,-32
 161              		.cfi_def_cfa_offset 32
 162 0084 233C1100 		sd	ra,24(sp)
 163 0088 23388100 		sd	s0,16(sp)
 164 008c 23349100 		sd	s1,8(sp)
 165              		.cfi_offset 1, -8
 166              		.cfi_offset 8, -16
 167              		.cfi_offset 9, -24
 168 0090 13040102 		addi	s0,sp,32
 169              		.cfi_def_cfa 8, 0
 170              	.LBB13:
  45:src/syscall_cpp.cpp ****     if(this->myHandle)
 171              		.loc 2 45 17 is_stmt 0
 172 0094 97070000 		lla	a5,_ZTV6Thread+16
 172      93870700 
 173 009c 2330F500 		sd	a5,0(a0)
  46:src/syscall_cpp.cpp ****         delete myHandle;
 174              		.loc 2 46 5 is_stmt 1
GAS LISTING /tmp/cc6JPqsM.s 			page 6


  46:src/syscall_cpp.cpp ****         delete myHandle;
 175              		.loc 2 46 14 is_stmt 0
 176 00a0 83348500 		ld	s1,8(a0)
  46:src/syscall_cpp.cpp ****         delete myHandle;
 177              		.loc 2 46 5
 178 00a4 63800402 		beqz	s1,.L11
  47:src/syscall_cpp.cpp **** }
 179              		.loc 2 47 9 is_stmt 1
 180              	.LVL10:
 181              	.LBB14:
 182              	.LBB15:
 183              		.file 3 "src/../h/TCB.hpp"
   1:src/../h/TCB.hpp **** //
   2:src/../h/TCB.hpp **** // Created by os on 6/20/23.
   3:src/../h/TCB.hpp **** //
   4:src/../h/TCB.hpp **** 
   5:src/../h/TCB.hpp **** #ifndef PROJECT_BASE_V1_1_TCB_HPP
   6:src/../h/TCB.hpp **** #define PROJECT_BASE_V1_1_TCB_HPP
   7:src/../h/TCB.hpp **** 
   8:src/../h/TCB.hpp **** #include "../lib/hw.h"
   9:src/../h/TCB.hpp **** #include "syscall_c.hpp"
  10:src/../h/TCB.hpp **** #include "../h/Scheduler.hpp"
  11:src/../h/TCB.hpp **** #include "list.hpp"
  12:src/../h/TCB.hpp **** 
  13:src/../h/TCB.hpp **** // ideja za klasu preuzeta sa vezbi
  14:src/../h/TCB.hpp **** class TCB {
  15:src/../h/TCB.hpp **** public:
  16:src/../h/TCB.hpp ****     TCB* next;
  17:src/../h/TCB.hpp ****     enum State{FINISHED, RUNNING, BLOCKED, SLEEPING};
  18:src/../h/TCB.hpp ****     using Body = void(*)(void*);
  19:src/../h/TCB.hpp ****     using Argument = void*;
  20:src/../h/TCB.hpp **** 
  21:src/../h/TCB.hpp ****     static TCB* createThread(Body body, Argument argument, uint8* st);
  22:src/../h/TCB.hpp **** 
  23:src/../h/TCB.hpp ****     // Finished
  24:src/../h/TCB.hpp ****     bool isFinished() const{ return this->state == FINISHED; }
  25:src/../h/TCB.hpp ****     void setFinished(bool finished){ this->state = finished? FINISHED:RUNNING; }
  26:src/../h/TCB.hpp **** 
  27:src/../h/TCB.hpp ****     // Blocked
  28:src/../h/TCB.hpp ****     bool isBlocked() const { return this->state == BLOCKED; }
  29:src/../h/TCB.hpp ****     void setBlocked(bool blocked) { this->state = blocked?BLOCKED:RUNNING; }
  30:src/../h/TCB.hpp **** 
  31:src/../h/TCB.hpp ****     // Sleeping
  32:src/../h/TCB.hpp ****     bool isSleeping() const { return this->state == SLEEPING;}
  33:src/../h/TCB.hpp ****     void setSleeping(bool sleeping) { this->state = sleeping?SLEEPING:RUNNING; }
  34:src/../h/TCB.hpp **** 
  35:src/../h/TCB.hpp ****     // Running
  36:src/../h/TCB.hpp ****     bool isRunning(){ return this->state == RUNNING;}
  37:src/../h/TCB.hpp **** 
  38:src/../h/TCB.hpp ****     // Sleep time
  39:src/../h/TCB.hpp ****     void setSleepTime(int time1) { this->sleep_time = time1; }
  40:src/../h/TCB.hpp ****     int getSleepTime() { return this->sleep_time; }
  41:src/../h/TCB.hpp **** 
  42:src/../h/TCB.hpp ****     // System access
  43:src/../h/TCB.hpp ****     void setSystemAccessFlag(){ this->systemAccessFlag = true; }
  44:src/../h/TCB.hpp ****     bool getSystemAccessFlag(){ return this->systemAccessFlag; }
  45:src/../h/TCB.hpp **** 
GAS LISTING /tmp/cc6JPqsM.s 			page 7


  46:src/../h/TCB.hpp ****     uint64 getTimeSlice() const{
  47:src/../h/TCB.hpp ****         return t_slice;
  48:src/../h/TCB.hpp ****     }
  49:src/../h/TCB.hpp **** 
  50:src/../h/TCB.hpp ****     uint8* getStack() const{
  51:src/../h/TCB.hpp ****         return this->stack;
  52:src/../h/TCB.hpp ****     }
  53:src/../h/TCB.hpp **** 
  54:src/../h/TCB.hpp ****     void* getArgument(){
  55:src/../h/TCB.hpp ****         return argument;
  56:src/../h/TCB.hpp ****     }
  57:src/../h/TCB.hpp **** 
  58:src/../h/TCB.hpp ****     static void yield();
  59:src/../h/TCB.hpp **** 
  60:src/../h/TCB.hpp ****     static void join(TCB* thread);
  61:src/../h/TCB.hpp **** 
  62:src/../h/TCB.hpp ****     static void exit();
  63:src/../h/TCB.hpp **** 
  64:src/../h/TCB.hpp ****     static TCB* running;
  65:src/../h/TCB.hpp **** 
  66:src/../h/TCB.hpp ****     ~TCB(){
  67:src/../h/TCB.hpp ****         if(stack)
 184              		.loc 3 67 9
 185              		.loc 3 67 12 is_stmt 0
 186 00a8 03B58401 		ld	a0,24(s1)
 187              	.LVL11:
 188              		.loc 3 67 9
 189 00ac 63060500 		beqz	a0,.L13
  68:src/../h/TCB.hpp ****             delete[] stack;
 190              		.loc 3 68 13 is_stmt 1
 191              		.loc 3 68 22 is_stmt 0
 192 00b0 97000000 		call	_ZdaPv@plt
 192      E7800000 
 193              	.LVL12:
 194              	.L13:
 195              	.LBE15:
 196              	.LBE14:
  47:src/syscall_cpp.cpp **** }
 197              		.loc 2 47 16
 198 00b8 13850400 		mv	a0,s1
 199 00bc 97000000 		call	_ZdlPv@plt
 199      E7800000 
 200              	.LVL13:
 201              	.L11:
 202              	.LBE13:
  48:src/syscall_cpp.cpp **** 
 203              		.loc 2 48 1
 204 00c4 83308101 		ld	ra,24(sp)
 205              		.cfi_restore 1
 206 00c8 03340101 		ld	s0,16(sp)
 207              		.cfi_restore 8
 208              		.cfi_def_cfa 2, 32
 209 00cc 83348100 		ld	s1,8(sp)
 210              		.cfi_restore 9
 211 00d0 13010102 		addi	sp,sp,32
 212              		.cfi_def_cfa_offset 0
 213 00d4 67800000 		jr	ra
GAS LISTING /tmp/cc6JPqsM.s 			page 8


 214              		.cfi_endproc
 215              	.LFE43:
 217              		.globl	_ZN6ThreadD1Ev
 218              		.set	_ZN6ThreadD1Ev,_ZN6ThreadD2Ev
 219              		.align	2
 220              		.globl	_ZN6ThreadD0Ev
 222              	_ZN6ThreadD0Ev:
 223              	.LFB45:
  45:src/syscall_cpp.cpp ****     if(this->myHandle)
 224              		.loc 2 45 1 is_stmt 1
 225              		.cfi_startproc
 226              	.LVL14:
 227 00d8 130101FE 		addi	sp,sp,-32
 228              		.cfi_def_cfa_offset 32
 229 00dc 233C1100 		sd	ra,24(sp)
 230 00e0 23388100 		sd	s0,16(sp)
 231 00e4 23349100 		sd	s1,8(sp)
 232              		.cfi_offset 1, -8
 233              		.cfi_offset 8, -16
 234              		.cfi_offset 9, -24
 235 00e8 13040102 		addi	s0,sp,32
 236              		.cfi_def_cfa 8, 0
 237 00ec 93040500 		mv	s1,a0
  48:src/syscall_cpp.cpp **** 
 238              		.loc 2 48 1 is_stmt 0
 239 00f0 97000000 		call	_ZN6ThreadD1Ev
 239      E7800000 
 240              	.LVL15:
 241 00f8 13850400 		mv	a0,s1
 242 00fc 97000000 		call	_ZdlPv@plt
 242      E7800000 
 243              	.LVL16:
 244 0104 83308101 		ld	ra,24(sp)
 245              		.cfi_restore 1
 246 0108 03340101 		ld	s0,16(sp)
 247              		.cfi_restore 8
 248              		.cfi_def_cfa 2, 32
 249 010c 83348100 		ld	s1,8(sp)
 250              		.cfi_restore 9
 251              	.LVL17:
 252 0110 13010102 		addi	sp,sp,32
 253              		.cfi_def_cfa_offset 0
 254 0114 67800000 		jr	ra
 255              		.cfi_endproc
 256              	.LFE45:
 258              		.section	.text._ZN14PeriodicThreadD2Ev,"axG",@progbits,_ZN14PeriodicThreadD5Ev,comdat
 259              		.align	2
 260              		.weak	_ZN14PeriodicThreadD2Ev
 262              	_ZN14PeriodicThreadD2Ev:
 263              	.LFB63:
  46:src/../h/syscall_cpp.hpp **** public:
 264              		.loc 1 46 7 is_stmt 1
 265              		.cfi_startproc
 266              	.LVL18:
 267 0000 130101FF 		addi	sp,sp,-16
 268              		.cfi_def_cfa_offset 16
 269 0004 23341100 		sd	ra,8(sp)
GAS LISTING /tmp/cc6JPqsM.s 			page 9


 270 0008 23308100 		sd	s0,0(sp)
 271              		.cfi_offset 1, -8
 272              		.cfi_offset 8, -16
 273 000c 13040101 		addi	s0,sp,16
 274              		.cfi_def_cfa 8, 0
 275              	.LBB16:
  46:src/../h/syscall_cpp.hpp **** public:
 276              		.loc 1 46 7 is_stmt 0
 277 0010 97070000 		lla	a5,_ZTV14PeriodicThread+16
 277      93870700 
 278 0018 2330F500 		sd	a5,0(a0)
 279 001c 97000000 		call	_ZN6ThreadD2Ev
 279      E7800000 
 280              	.LVL19:
 281              	.LBE16:
 282 0024 83308100 		ld	ra,8(sp)
 283              		.cfi_restore 1
 284 0028 03340100 		ld	s0,0(sp)
 285              		.cfi_restore 8
 286              		.cfi_def_cfa 2, 16
 287 002c 13010101 		addi	sp,sp,16
 288              		.cfi_def_cfa_offset 0
 289 0030 67800000 		jr	ra
 290              		.cfi_endproc
 291              	.LFE63:
 293              		.weak	_ZN14PeriodicThreadD1Ev
 294              		.set	_ZN14PeriodicThreadD1Ev,_ZN14PeriodicThreadD2Ev
 295              		.section	.text._ZN14PeriodicThreadD0Ev,"axG",@progbits,_ZN14PeriodicThreadD5Ev,comdat
 296              		.align	2
 297              		.weak	_ZN14PeriodicThreadD0Ev
 299              	_ZN14PeriodicThreadD0Ev:
 300              	.LFB65:
  46:src/../h/syscall_cpp.hpp **** public:
 301              		.loc 1 46 7 is_stmt 1
 302              		.cfi_startproc
 303              	.LVL20:
 304 0000 130101FE 		addi	sp,sp,-32
 305              		.cfi_def_cfa_offset 32
 306 0004 233C1100 		sd	ra,24(sp)
 307 0008 23388100 		sd	s0,16(sp)
 308 000c 23349100 		sd	s1,8(sp)
 309              		.cfi_offset 1, -8
 310              		.cfi_offset 8, -16
 311              		.cfi_offset 9, -24
 312 0010 13040102 		addi	s0,sp,32
 313              		.cfi_def_cfa 8, 0
 314 0014 93040500 		mv	s1,a0
 315              	.LVL21:
 316              	.LBB17:
 317              	.LBB18:
  46:src/../h/syscall_cpp.hpp **** public:
 318              		.loc 1 46 7 is_stmt 0
 319 0018 97070000 		lla	a5,_ZTV14PeriodicThread+16
 319      93870700 
 320 0020 2330F500 		sd	a5,0(a0)
 321 0024 97000000 		call	_ZN6ThreadD2Ev
 321      E7800000 
GAS LISTING /tmp/cc6JPqsM.s 			page 10


 322              	.LVL22:
 323              	.LBE18:
 324              	.LBE17:
 325 002c 13850400 		mv	a0,s1
 326 0030 97000000 		call	_ZdlPv@plt
 326      E7800000 
 327              	.LVL23:
 328 0038 83308101 		ld	ra,24(sp)
 329              		.cfi_restore 1
 330 003c 03340101 		ld	s0,16(sp)
 331              		.cfi_restore 8
 332              		.cfi_def_cfa 2, 32
 333 0040 83348100 		ld	s1,8(sp)
 334              		.cfi_restore 9
 335              	.LVL24:
 336 0044 13010102 		addi	sp,sp,32
 337              		.cfi_def_cfa_offset 0
 338 0048 67800000 		jr	ra
 339              		.cfi_endproc
 340              	.LFE65:
 342              		.text
 343              		.align	2
 344              		.globl	_ZN9SemaphoreD2Ev
 346              	_ZN9SemaphoreD2Ev:
 347              	.LFB57:
  62:src/syscall_cpp.cpp **** 
  63:src/syscall_cpp.cpp **** void PeriodicThread::terminate() {
  64:src/syscall_cpp.cpp ****     this->state = TERMINATED;
  65:src/syscall_cpp.cpp **** }
  66:src/syscall_cpp.cpp **** 
  67:src/syscall_cpp.cpp **** Semaphore::Semaphore(unsigned int init) {
  68:src/syscall_cpp.cpp ****     sem_open(&myHandle,init);
  69:src/syscall_cpp.cpp **** }
  70:src/syscall_cpp.cpp **** 
  71:src/syscall_cpp.cpp **** int Semaphore::wait() {
  72:src/syscall_cpp.cpp ****     return sem_wait(myHandle);
  73:src/syscall_cpp.cpp **** }
  74:src/syscall_cpp.cpp **** 
  75:src/syscall_cpp.cpp **** int Semaphore::signal() {
  76:src/syscall_cpp.cpp ****     return sem_signal(myHandle);
  77:src/syscall_cpp.cpp **** }
  78:src/syscall_cpp.cpp **** 
  79:src/syscall_cpp.cpp **** Semaphore::~Semaphore() {
 348              		.loc 2 79 1 is_stmt 1
 349              		.cfi_startproc
 350              		.cfi_personality 0x9b,DW.ref.__gxx_personality_v0
 351              		.cfi_lsda 0x1b,.LLSDA57
 352              	.LVL25:
 353 0118 130101FE 		addi	sp,sp,-32
 354              		.cfi_def_cfa_offset 32
 355 011c 233C1100 		sd	ra,24(sp)
 356 0120 23388100 		sd	s0,16(sp)
 357 0124 23349100 		sd	s1,8(sp)
 358              		.cfi_offset 1, -8
 359              		.cfi_offset 8, -16
 360              		.cfi_offset 9, -24
 361 0128 13040102 		addi	s0,sp,32
GAS LISTING /tmp/cc6JPqsM.s 			page 11


 362              		.cfi_def_cfa 8, 0
 363 012c 93040500 		mv	s1,a0
 364              	.LBB19:
 365              		.loc 2 79 23 is_stmt 0
 366 0130 97070000 		lla	a5,_ZTV9Semaphore+16
 366      93870700 
 367 0138 2330F500 		sd	a5,0(a0)
  80:src/syscall_cpp.cpp ****     sem_close(myHandle);
 368              		.loc 2 80 5 is_stmt 1
 369              		.loc 2 80 14 is_stmt 0
 370 013c 03358500 		ld	a0,8(a0)
 371              	.LVL26:
 372 0140 97000000 		call	_Z9sem_closeP4_sem@plt
 372      E7800000 
 373              	.LVL27:
  81:src/syscall_cpp.cpp ****     delete this->myHandle;
 374              		.loc 2 81 5 is_stmt 1
 375              		.loc 2 81 18 is_stmt 0
 376 0148 83B48400 		ld	s1,8(s1)
 377              	.LVL28:
 378              		.loc 2 81 26
 379 014c 638E0400 		beqz	s1,.L21
 380              	.LVL29:
 381              	.LBB20:
 382              	.LBB21:
 383              		.file 4 "src/../h/_sem.hpp"
   1:src/../h/_sem.hpp **** //
   2:src/../h/_sem.hpp **** // Created by os on 6/23/23.
   3:src/../h/_sem.hpp **** //
   4:src/../h/_sem.hpp **** 
   5:src/../h/_sem.hpp **** #ifndef PROJECT_BASE_V1_1__SEM_HPP
   6:src/../h/_sem.hpp **** #define PROJECT_BASE_V1_1__SEM_HPP
   7:src/../h/_sem.hpp **** #include "list.hpp"
   8:src/../h/_sem.hpp **** #include "TCB.hpp"
   9:src/../h/_sem.hpp **** class _sem{
  10:src/../h/_sem.hpp **** public:
  11:src/../h/_sem.hpp ****     _sem(int init): val(init), closed(false){}
  12:src/../h/_sem.hpp **** 
  13:src/../h/_sem.hpp ****     int close();
  14:src/../h/_sem.hpp ****     int wait();
  15:src/../h/_sem.hpp ****     int signal();
  16:src/../h/_sem.hpp **** 
  17:src/../h/_sem.hpp **** 
  18:src/../h/_sem.hpp ****     ~_sem(){
  19:src/../h/_sem.hpp ****         close();
 384              		.loc 4 19 9 is_stmt 1
 385              		.loc 4 19 14 is_stmt 0
 386 0150 13850400 		mv	a0,s1
 387 0154 97000000 		call	_ZN4_sem5closeEv@plt
 387      E7800000 
 388              	.LVL30:
 389              	.LBE21:
 390              	.LBE20:
 391              		.loc 2 81 18
 392 015c 13850400 		mv	a0,s1
 393 0160 97000000 		call	_ZdlPv@plt
 393      E7800000 
GAS LISTING /tmp/cc6JPqsM.s 			page 12


 394              	.LVL31:
 395              	.L21:
 396              	.LBE19:
  82:src/syscall_cpp.cpp **** }
 397              		.loc 2 82 1
 398 0168 83308101 		ld	ra,24(sp)
 399              		.cfi_restore 1
 400 016c 03340101 		ld	s0,16(sp)
 401              		.cfi_restore 8
 402              		.cfi_def_cfa 2, 32
 403 0170 83348100 		ld	s1,8(sp)
 404              		.cfi_restore 9
 405 0174 13010102 		addi	sp,sp,32
 406              		.cfi_def_cfa_offset 0
 407 0178 67800000 		jr	ra
 408              		.cfi_endproc
 409              	.LFE57:
 410              		.globl	__gxx_personality_v0
 411              		.section	.gcc_except_table,"a",@progbits
 412              	.LLSDA57:
 413 0000 FF       		.byte	0xff
 414 0001 FF       		.byte	0xff
 415 0002 03       		.byte	0x3
 416 0003 00       		.byte	0
 417              		.text
 419              		.globl	_ZN9SemaphoreD1Ev
 420              		.set	_ZN9SemaphoreD1Ev,_ZN9SemaphoreD2Ev
 421              		.align	2
 422              		.globl	_ZN9SemaphoreD0Ev
 424              	_ZN9SemaphoreD0Ev:
 425              	.LFB59:
  79:src/syscall_cpp.cpp ****     sem_close(myHandle);
 426              		.loc 2 79 1 is_stmt 1
 427              		.cfi_startproc
 428              	.LVL32:
 429 017c 130101FE 		addi	sp,sp,-32
 430              		.cfi_def_cfa_offset 32
 431 0180 233C1100 		sd	ra,24(sp)
 432 0184 23388100 		sd	s0,16(sp)
 433 0188 23349100 		sd	s1,8(sp)
 434              		.cfi_offset 1, -8
 435              		.cfi_offset 8, -16
 436              		.cfi_offset 9, -24
 437 018c 13040102 		addi	s0,sp,32
 438              		.cfi_def_cfa 8, 0
 439 0190 93040500 		mv	s1,a0
 440              		.loc 2 82 1 is_stmt 0
 441 0194 97000000 		call	_ZN9SemaphoreD1Ev
 441      E7800000 
 442              	.LVL33:
 443 019c 13850400 		mv	a0,s1
 444 01a0 97000000 		call	_ZdlPv@plt
 444      E7800000 
 445              	.LVL34:
 446 01a8 83308101 		ld	ra,24(sp)
 447              		.cfi_restore 1
 448 01ac 03340101 		ld	s0,16(sp)
GAS LISTING /tmp/cc6JPqsM.s 			page 13


 449              		.cfi_restore 8
 450              		.cfi_def_cfa 2, 32
 451 01b0 83348100 		ld	s1,8(sp)
 452              		.cfi_restore 9
 453              	.LVL35:
 454 01b4 13010102 		addi	sp,sp,32
 455              		.cfi_def_cfa_offset 0
 456 01b8 67800000 		jr	ra
 457              		.cfi_endproc
 458              	.LFE59:
 460              		.align	2
 461              		.globl	_ZN6ThreadC2EPFvPvES0_
 463              	_ZN6ThreadC2EPFvPvES0_:
 464              	.LFB32:
  10:src/syscall_cpp.cpp ****     this->body = body;
 465              		.loc 2 10 1 is_stmt 1
 466              		.cfi_startproc
 467              	.LVL36:
 468 01bc 130101FF 		addi	sp,sp,-16
 469              		.cfi_def_cfa_offset 16
 470 01c0 23348100 		sd	s0,8(sp)
 471              		.cfi_offset 8, -8
 472 01c4 13040101 		addi	s0,sp,16
 473              		.cfi_def_cfa 8, 0
 474              	.LBB22:
  10:src/syscall_cpp.cpp ****     this->body = body;
 475              		.loc 2 10 47 is_stmt 0
 476 01c8 97070000 		lla	a5,_ZTV6Thread+16
 476      93870700 
 477 01d0 2330F500 		sd	a5,0(a0)
  11:src/syscall_cpp.cpp ****     this->arg = arg;
 478              		.loc 2 11 5 is_stmt 1
  11:src/syscall_cpp.cpp ****     this->arg = arg;
 479              		.loc 2 11 16 is_stmt 0
 480 01d4 2338B500 		sd	a1,16(a0)
  12:src/syscall_cpp.cpp ****     this->myHandle = nullptr;
 481              		.loc 2 12 5 is_stmt 1
  12:src/syscall_cpp.cpp ****     this->myHandle = nullptr;
 482              		.loc 2 12 15 is_stmt 0
 483 01d8 233CC500 		sd	a2,24(a0)
  13:src/syscall_cpp.cpp **** }
 484              		.loc 2 13 5 is_stmt 1
  13:src/syscall_cpp.cpp **** }
 485              		.loc 2 13 20 is_stmt 0
 486 01dc 23340500 		sd	zero,8(a0)
 487              	.LBE22:
  14:src/syscall_cpp.cpp **** 
 488              		.loc 2 14 1
 489 01e0 03348100 		ld	s0,8(sp)
 490              		.cfi_restore 8
 491              		.cfi_def_cfa 2, 16
 492 01e4 13010101 		addi	sp,sp,16
 493              		.cfi_def_cfa_offset 0
 494 01e8 67800000 		jr	ra
 495              		.cfi_endproc
 496              	.LFE32:
 498              		.globl	_ZN6ThreadC1EPFvPvES0_
GAS LISTING /tmp/cc6JPqsM.s 			page 14


 499              		.set	_ZN6ThreadC1EPFvPvES0_,_ZN6ThreadC2EPFvPvES0_
 500              		.align	2
 501              		.globl	_ZN6ThreadC2Ev
 503              	_ZN6ThreadC2Ev:
 504              	.LFB36:
  20:src/syscall_cpp.cpp ****     this->body = &runWrapper;
 505              		.loc 2 20 1 is_stmt 1
 506              		.cfi_startproc
 507              	.LVL37:
 508 01ec 130101FF 		addi	sp,sp,-16
 509              		.cfi_def_cfa_offset 16
 510 01f0 23348100 		sd	s0,8(sp)
 511              		.cfi_offset 8, -8
 512 01f4 13040101 		addi	s0,sp,16
 513              		.cfi_def_cfa 8, 0
 514              	.LBB23:
  20:src/syscall_cpp.cpp ****     this->body = &runWrapper;
 515              		.loc 2 20 16 is_stmt 0
 516 01f8 97070000 		lla	a5,_ZTV6Thread+16
 516      93870700 
 517 0200 2330F500 		sd	a5,0(a0)
  21:src/syscall_cpp.cpp ****     this->arg = this;
 518              		.loc 2 21 5 is_stmt 1
  21:src/syscall_cpp.cpp ****     this->arg = this;
 519              		.loc 2 21 16 is_stmt 0
 520 0204 97070000 		lla	a5,_ZN6Thread10runWrapperEPv
 520      93870700 
 521 020c 2338F500 		sd	a5,16(a0)
  22:src/syscall_cpp.cpp ****     this->myHandle = nullptr;
 522              		.loc 2 22 5 is_stmt 1
  22:src/syscall_cpp.cpp ****     this->myHandle = nullptr;
 523              		.loc 2 22 15 is_stmt 0
 524 0210 233CA500 		sd	a0,24(a0)
  23:src/syscall_cpp.cpp **** }
 525              		.loc 2 23 5 is_stmt 1
  23:src/syscall_cpp.cpp **** }
 526              		.loc 2 23 20 is_stmt 0
 527 0214 23340500 		sd	zero,8(a0)
 528              	.LBE23:
  24:src/syscall_cpp.cpp **** 
 529              		.loc 2 24 1
 530 0218 03348100 		ld	s0,8(sp)
 531              		.cfi_restore 8
 532              		.cfi_def_cfa 2, 16
 533 021c 13010101 		addi	sp,sp,16
 534              		.cfi_def_cfa_offset 0
 535 0220 67800000 		jr	ra
 536              		.cfi_endproc
 537              	.LFE36:
 539              		.globl	_ZN6ThreadC1Ev
 540              		.set	_ZN6ThreadC1Ev,_ZN6ThreadC2Ev
 541              		.align	2
 542              		.globl	_ZN6Thread5startEv
 544              	_ZN6Thread5startEv:
 545              	.LFB38:
  26:src/syscall_cpp.cpp ****     // myHandle is a thread_t type which is a TCB*, we give an adress of myHandle because
 546              		.loc 2 26 21 is_stmt 1
GAS LISTING /tmp/cc6JPqsM.s 			page 15


 547              		.cfi_startproc
 548              	.LVL38:
 549 0224 130101FF 		addi	sp,sp,-16
 550              		.cfi_def_cfa_offset 16
 551 0228 23341100 		sd	ra,8(sp)
 552 022c 23308100 		sd	s0,0(sp)
 553              		.cfi_offset 1, -8
 554              		.cfi_offset 8, -16
 555 0230 13040101 		addi	s0,sp,16
 556              		.cfi_def_cfa 8, 0
  29:src/syscall_cpp.cpp **** }
 557              		.loc 2 29 5
  29:src/syscall_cpp.cpp **** }
 558              		.loc 2 29 25 is_stmt 0
 559 0234 03368501 		ld	a2,24(a0)
 560 0238 83350501 		ld	a1,16(a0)
 561 023c 13058500 		addi	a0,a0,8
 562              	.LVL39:
 563 0240 97000000 		call	_Z13thread_createPP3TCBPFvPvES2_@plt
 563      E7800000 
 564              	.LVL40:
  30:src/syscall_cpp.cpp **** 
 565              		.loc 2 30 1
 566 0248 83308100 		ld	ra,8(sp)
 567              		.cfi_restore 1
 568 024c 03340100 		ld	s0,0(sp)
 569              		.cfi_restore 8
 570              		.cfi_def_cfa 2, 16
 571 0250 13010101 		addi	sp,sp,16
 572              		.cfi_def_cfa_offset 0
 573 0254 67800000 		jr	ra
 574              		.cfi_endproc
 575              	.LFE38:
 577              		.align	2
 578              		.globl	_ZN6Thread4joinEv
 580              	_ZN6Thread4joinEv:
 581              	.LFB39:
  32:src/syscall_cpp.cpp ****     thread_join(this->myHandle);
 582              		.loc 2 32 20 is_stmt 1
 583              		.cfi_startproc
 584              	.LVL41:
 585 0258 130101FF 		addi	sp,sp,-16
 586              		.cfi_def_cfa_offset 16
 587 025c 23341100 		sd	ra,8(sp)
 588 0260 23308100 		sd	s0,0(sp)
 589              		.cfi_offset 1, -8
 590              		.cfi_offset 8, -16
 591 0264 13040101 		addi	s0,sp,16
 592              		.cfi_def_cfa 8, 0
  33:src/syscall_cpp.cpp **** }
 593              		.loc 2 33 5
  33:src/syscall_cpp.cpp **** }
 594              		.loc 2 33 16 is_stmt 0
 595 0268 03358500 		ld	a0,8(a0)
 596              	.LVL42:
 597 026c 97000000 		call	_Z11thread_joinP3TCB@plt
 597      E7800000 
GAS LISTING /tmp/cc6JPqsM.s 			page 16


 598              	.LVL43:
  34:src/syscall_cpp.cpp **** 
 599              		.loc 2 34 1
 600 0274 83308100 		ld	ra,8(sp)
 601              		.cfi_restore 1
 602 0278 03340100 		ld	s0,0(sp)
 603              		.cfi_restore 8
 604              		.cfi_def_cfa 2, 16
 605 027c 13010101 		addi	sp,sp,16
 606              		.cfi_def_cfa_offset 0
 607 0280 67800000 		jr	ra
 608              		.cfi_endproc
 609              	.LFE39:
 611              		.align	2
 612              		.globl	_ZN6Thread8dispatchEv
 614              	_ZN6Thread8dispatchEv:
 615              	.LFB40:
  36:src/syscall_cpp.cpp ****     thread_dispatch();
 616              		.loc 2 36 25 is_stmt 1
 617              		.cfi_startproc
 618 0284 130101FF 		addi	sp,sp,-16
 619              		.cfi_def_cfa_offset 16
 620 0288 23341100 		sd	ra,8(sp)
 621 028c 23308100 		sd	s0,0(sp)
 622              		.cfi_offset 1, -8
 623              		.cfi_offset 8, -16
 624 0290 13040101 		addi	s0,sp,16
 625              		.cfi_def_cfa 8, 0
  37:src/syscall_cpp.cpp **** }
 626              		.loc 2 37 5
  37:src/syscall_cpp.cpp **** }
 627              		.loc 2 37 20 is_stmt 0
 628 0294 97000000 		call	_Z15thread_dispatchv@plt
 628      E7800000 
 629              	.LVL44:
  38:src/syscall_cpp.cpp **** 
 630              		.loc 2 38 1
 631 029c 83308100 		ld	ra,8(sp)
 632              		.cfi_restore 1
 633 02a0 03340100 		ld	s0,0(sp)
 634              		.cfi_restore 8
 635              		.cfi_def_cfa 2, 16
 636 02a4 13010101 		addi	sp,sp,16
 637              		.cfi_def_cfa_offset 0
 638 02a8 67800000 		jr	ra
 639              		.cfi_endproc
 640              	.LFE40:
 642              		.align	2
 643              		.globl	_ZN6Thread5sleepEm
 645              	_ZN6Thread5sleepEm:
 646              	.LFB41:
  40:src/syscall_cpp.cpp ****     return time_sleep(t);
 647              		.loc 2 40 29 is_stmt 1
 648              		.cfi_startproc
 649              	.LVL45:
 650 02ac 130101FF 		addi	sp,sp,-16
 651              		.cfi_def_cfa_offset 16
GAS LISTING /tmp/cc6JPqsM.s 			page 17


 652 02b0 23341100 		sd	ra,8(sp)
 653 02b4 23308100 		sd	s0,0(sp)
 654              		.cfi_offset 1, -8
 655              		.cfi_offset 8, -16
 656 02b8 13040101 		addi	s0,sp,16
 657              		.cfi_def_cfa 8, 0
  41:src/syscall_cpp.cpp **** }
 658              		.loc 2 41 5
  41:src/syscall_cpp.cpp **** }
 659              		.loc 2 41 22 is_stmt 0
 660 02bc 97000000 		call	_Z10time_sleepm@plt
 660      E7800000 
 661              	.LVL46:
  42:src/syscall_cpp.cpp **** 
 662              		.loc 2 42 1
 663 02c4 83308100 		ld	ra,8(sp)
 664              		.cfi_restore 1
 665 02c8 03340100 		ld	s0,0(sp)
 666              		.cfi_restore 8
 667              		.cfi_def_cfa 2, 16
 668 02cc 13010101 		addi	sp,sp,16
 669              		.cfi_def_cfa_offset 0
 670 02d0 67800000 		jr	ra
 671              		.cfi_endproc
 672              	.LFE41:
 674              		.align	2
 675              		.globl	_ZN14PeriodicThreadC2Em
 677              	_ZN14PeriodicThreadC2Em:
 678              	.LFB47:
  50:src/syscall_cpp.cpp ****                                                 period(period), state(RUNNING){}
 679              		.loc 2 50 1 is_stmt 1
 680              		.cfi_startproc
 681              	.LVL47:
 682 02d4 130101FE 		addi	sp,sp,-32
 683              		.cfi_def_cfa_offset 32
 684 02d8 233C1100 		sd	ra,24(sp)
 685 02dc 23388100 		sd	s0,16(sp)
 686 02e0 23349100 		sd	s1,8(sp)
 687 02e4 23302101 		sd	s2,0(sp)
 688              		.cfi_offset 1, -8
 689              		.cfi_offset 8, -16
 690              		.cfi_offset 9, -24
 691              		.cfi_offset 18, -32
 692 02e8 13040102 		addi	s0,sp,32
 693              		.cfi_def_cfa 8, 0
 694 02ec 93040500 		mv	s1,a0
 695 02f0 13890500 		mv	s2,a1
 696              	.LBB24:
  51:src/syscall_cpp.cpp **** 
 697              		.loc 2 51 78 is_stmt 0
 698 02f4 13060500 		mv	a2,a0
 699 02f8 97050000 		lla	a1,_ZN14PeriodicThread25periodicActivationWrapperEPv
 699      93850500 
 700              	.LVL48:
 701 0300 97000000 		call	_ZN6ThreadC2EPFvPvES0_
 701      E7800000 
 702              	.LVL49:
GAS LISTING /tmp/cc6JPqsM.s 			page 18


 703 0308 97070000 		lla	a5,_ZTV14PeriodicThread+16
 703      93870700 
 704 0310 23B0F400 		sd	a5,0(s1)
 705 0314 23B02403 		sd	s2,32(s1)
 706 0318 23A40402 		sw	zero,40(s1)
 707              	.LBE24:
  51:src/syscall_cpp.cpp **** 
 708              		.loc 2 51 80
 709 031c 83308101 		ld	ra,24(sp)
 710              		.cfi_restore 1
 711 0320 03340101 		ld	s0,16(sp)
 712              		.cfi_restore 8
 713              		.cfi_def_cfa 2, 32
 714 0324 83348100 		ld	s1,8(sp)
 715              		.cfi_restore 9
 716              	.LVL50:
 717 0328 03390100 		ld	s2,0(sp)
 718              		.cfi_restore 18
 719              	.LVL51:
 720 032c 13010102 		addi	sp,sp,32
 721              		.cfi_def_cfa_offset 0
 722 0330 67800000 		jr	ra
 723              		.cfi_endproc
 724              	.LFE47:
 726              		.globl	_ZN14PeriodicThreadC1Em
 727              		.set	_ZN14PeriodicThreadC1Em,_ZN14PeriodicThreadC2Em
 728              		.align	2
 729              		.globl	_ZN14PeriodicThread9terminateEv
 731              	_ZN14PeriodicThread9terminateEv:
 732              	.LFB50:
  63:src/syscall_cpp.cpp ****     this->state = TERMINATED;
 733              		.loc 2 63 34 is_stmt 1
 734              		.cfi_startproc
 735              	.LVL52:
 736 0334 130101FF 		addi	sp,sp,-16
 737              		.cfi_def_cfa_offset 16
 738 0338 23348100 		sd	s0,8(sp)
 739              		.cfi_offset 8, -8
 740 033c 13040101 		addi	s0,sp,16
 741              		.cfi_def_cfa 8, 0
  64:src/syscall_cpp.cpp **** }
 742              		.loc 2 64 5
  64:src/syscall_cpp.cpp **** }
 743              		.loc 2 64 17 is_stmt 0
 744 0340 93071000 		li	a5,1
 745 0344 2324F502 		sw	a5,40(a0)
  65:src/syscall_cpp.cpp **** 
 746              		.loc 2 65 1
 747 0348 03348100 		ld	s0,8(sp)
 748              		.cfi_restore 8
 749              		.cfi_def_cfa 2, 16
 750 034c 13010101 		addi	sp,sp,16
 751              		.cfi_def_cfa_offset 0
 752 0350 67800000 		jr	ra
 753              		.cfi_endproc
 754              	.LFE50:
 756              		.align	2
GAS LISTING /tmp/cc6JPqsM.s 			page 19


 757              		.globl	_ZN9SemaphoreC2Ej
 759              	_ZN9SemaphoreC2Ej:
 760              	.LFB52:
  67:src/syscall_cpp.cpp ****     sem_open(&myHandle,init);
 761              		.loc 2 67 1 is_stmt 1
 762              		.cfi_startproc
 763              	.LVL53:
 764 0354 130101FF 		addi	sp,sp,-16
 765              		.cfi_def_cfa_offset 16
 766 0358 23341100 		sd	ra,8(sp)
 767 035c 23308100 		sd	s0,0(sp)
 768              		.cfi_offset 1, -8
 769              		.cfi_offset 8, -16
 770 0360 13040101 		addi	s0,sp,16
 771              		.cfi_def_cfa 8, 0
 772              	.LBB25:
  67:src/syscall_cpp.cpp ****     sem_open(&myHandle,init);
 773              		.loc 2 67 39 is_stmt 0
 774 0364 97070000 		lla	a5,_ZTV9Semaphore+16
 774      93870700 
 775 036c 2330F500 		sd	a5,0(a0)
  68:src/syscall_cpp.cpp **** }
 776              		.loc 2 68 5 is_stmt 1
  68:src/syscall_cpp.cpp **** }
 777              		.loc 2 68 13 is_stmt 0
 778 0370 13058500 		addi	a0,a0,8
 779              	.LVL54:
 780 0374 97000000 		call	_Z8sem_openPP4_semj@plt
 780      E7800000 
 781              	.LVL55:
 782              	.LBE25:
  69:src/syscall_cpp.cpp **** 
 783              		.loc 2 69 1
 784 037c 83308100 		ld	ra,8(sp)
 785              		.cfi_restore 1
 786 0380 03340100 		ld	s0,0(sp)
 787              		.cfi_restore 8
 788              		.cfi_def_cfa 2, 16
 789 0384 13010101 		addi	sp,sp,16
 790              		.cfi_def_cfa_offset 0
 791 0388 67800000 		jr	ra
 792              		.cfi_endproc
 793              	.LFE52:
 795              		.globl	_ZN9SemaphoreC1Ej
 796              		.set	_ZN9SemaphoreC1Ej,_ZN9SemaphoreC2Ej
 797              		.align	2
 798              		.globl	_ZN9Semaphore4waitEv
 800              	_ZN9Semaphore4waitEv:
 801              	.LFB54:
  71:src/syscall_cpp.cpp ****     return sem_wait(myHandle);
 802              		.loc 2 71 23 is_stmt 1
 803              		.cfi_startproc
 804              	.LVL56:
 805 038c 130101FF 		addi	sp,sp,-16
 806              		.cfi_def_cfa_offset 16
 807 0390 23341100 		sd	ra,8(sp)
 808 0394 23308100 		sd	s0,0(sp)
GAS LISTING /tmp/cc6JPqsM.s 			page 20


 809              		.cfi_offset 1, -8
 810              		.cfi_offset 8, -16
 811 0398 13040101 		addi	s0,sp,16
 812              		.cfi_def_cfa 8, 0
  72:src/syscall_cpp.cpp **** }
 813              		.loc 2 72 5
  72:src/syscall_cpp.cpp **** }
 814              		.loc 2 72 20 is_stmt 0
 815 039c 03358500 		ld	a0,8(a0)
 816              	.LVL57:
 817 03a0 97000000 		call	_Z8sem_waitP4_sem@plt
 817      E7800000 
 818              	.LVL58:
  73:src/syscall_cpp.cpp **** 
 819              		.loc 2 73 1
 820 03a8 83308100 		ld	ra,8(sp)
 821              		.cfi_restore 1
 822 03ac 03340100 		ld	s0,0(sp)
 823              		.cfi_restore 8
 824              		.cfi_def_cfa 2, 16
 825 03b0 13010101 		addi	sp,sp,16
 826              		.cfi_def_cfa_offset 0
 827 03b4 67800000 		jr	ra
 828              		.cfi_endproc
 829              	.LFE54:
 831              		.align	2
 832              		.globl	_ZN9Semaphore6signalEv
 834              	_ZN9Semaphore6signalEv:
 835              	.LFB55:
  75:src/syscall_cpp.cpp ****     return sem_signal(myHandle);
 836              		.loc 2 75 25 is_stmt 1
 837              		.cfi_startproc
 838              	.LVL59:
 839 03b8 130101FF 		addi	sp,sp,-16
 840              		.cfi_def_cfa_offset 16
 841 03bc 23341100 		sd	ra,8(sp)
 842 03c0 23308100 		sd	s0,0(sp)
 843              		.cfi_offset 1, -8
 844              		.cfi_offset 8, -16
 845 03c4 13040101 		addi	s0,sp,16
 846              		.cfi_def_cfa 8, 0
  76:src/syscall_cpp.cpp **** }
 847              		.loc 2 76 5
  76:src/syscall_cpp.cpp **** }
 848              		.loc 2 76 22 is_stmt 0
 849 03c8 03358500 		ld	a0,8(a0)
 850              	.LVL60:
 851 03cc 97000000 		call	_Z10sem_signalP4_sem@plt
 851      E7800000 
 852              	.LVL61:
  77:src/syscall_cpp.cpp **** 
 853              		.loc 2 77 1
 854 03d4 83308100 		ld	ra,8(sp)
 855              		.cfi_restore 1
 856 03d8 03340100 		ld	s0,0(sp)
 857              		.cfi_restore 8
 858              		.cfi_def_cfa 2, 16
GAS LISTING /tmp/cc6JPqsM.s 			page 21


 859 03dc 13010101 		addi	sp,sp,16
 860              		.cfi_def_cfa_offset 0
 861 03e0 67800000 		jr	ra
 862              		.cfi_endproc
 863              	.LFE55:
 865              		.align	2
 866              		.globl	_ZN7Console4getcEv
 868              	_ZN7Console4getcEv:
 869              	.LFB60:
  83:src/syscall_cpp.cpp **** 
  84:src/syscall_cpp.cpp **** char Console::getc() {
 870              		.loc 2 84 22 is_stmt 1
 871              		.cfi_startproc
 872 03e4 130101FF 		addi	sp,sp,-16
 873              		.cfi_def_cfa_offset 16
 874 03e8 23341100 		sd	ra,8(sp)
 875 03ec 23308100 		sd	s0,0(sp)
 876              		.cfi_offset 1, -8
 877              		.cfi_offset 8, -16
 878 03f0 13040101 		addi	s0,sp,16
 879              		.cfi_def_cfa 8, 0
  85:src/syscall_cpp.cpp ****     return ::getc();
 880              		.loc 2 85 5
 881              		.loc 2 85 18 is_stmt 0
 882 03f4 97000000 		call	_Z4getcv@plt
 882      E7800000 
 883              	.LVL62:
  86:src/syscall_cpp.cpp **** }
 884              		.loc 2 86 1
 885 03fc 83308100 		ld	ra,8(sp)
 886              		.cfi_restore 1
 887 0400 03340100 		ld	s0,0(sp)
 888              		.cfi_restore 8
 889              		.cfi_def_cfa 2, 16
 890 0404 13010101 		addi	sp,sp,16
 891              		.cfi_def_cfa_offset 0
 892 0408 67800000 		jr	ra
 893              		.cfi_endproc
 894              	.LFE60:
 896              		.align	2
 897              		.globl	_ZN7Console4putcEc
 899              	_ZN7Console4putcEc:
 900              	.LFB61:
  87:src/syscall_cpp.cpp **** 
  88:src/syscall_cpp.cpp **** void Console::putc(char c) {
 901              		.loc 2 88 28 is_stmt 1
 902              		.cfi_startproc
 903              	.LVL63:
 904 040c 130101FF 		addi	sp,sp,-16
 905              		.cfi_def_cfa_offset 16
 906 0410 23341100 		sd	ra,8(sp)
 907 0414 23308100 		sd	s0,0(sp)
 908              		.cfi_offset 1, -8
 909              		.cfi_offset 8, -16
 910 0418 13040101 		addi	s0,sp,16
 911              		.cfi_def_cfa 8, 0
  89:src/syscall_cpp.cpp ****     ::putc(c);
GAS LISTING /tmp/cc6JPqsM.s 			page 22


 912              		.loc 2 89 5
 913              		.loc 2 89 11 is_stmt 0
 914 041c 97000000 		call	_Z4putcc@plt
 914      E7800000 
 915              	.LVL64:
  90:src/syscall_cpp.cpp **** }
 916              		.loc 2 90 1
 917 0424 83308100 		ld	ra,8(sp)
 918              		.cfi_restore 1
 919 0428 03340100 		ld	s0,0(sp)
 920              		.cfi_restore 8
 921              		.cfi_def_cfa 2, 16
 922 042c 13010101 		addi	sp,sp,16
 923              		.cfi_def_cfa_offset 0
 924 0430 67800000 		jr	ra
 925              		.cfi_endproc
 926              	.LFE61:
 928              		.weak	_ZTV14PeriodicThread
 929              		.section	.data.rel.ro.local._ZTV14PeriodicThread,"awG",@progbits,_ZTV14PeriodicThread,comdat
 930              		.align	3
 933              	_ZTV14PeriodicThread:
 934 0000 00000000 		.dword	0
 934      00000000 
 935 0008 00000000 		.dword	0
 935      00000000 
 936 0010 00000000 		.dword	_ZN14PeriodicThreadD1Ev
 936      00000000 
 937 0018 00000000 		.dword	_ZN14PeriodicThreadD0Ev
 937      00000000 
 938 0020 00000000 		.dword	_ZN6Thread3runEv
 938      00000000 
 939 0028 00000000 		.dword	_ZN14PeriodicThread18periodicActivationEv
 939      00000000 
 940              		.weak	_ZTV6Thread
 941              		.section	.data.rel.ro.local._ZTV6Thread,"awG",@progbits,_ZTV6Thread,comdat
 942              		.align	3
 945              	_ZTV6Thread:
 946 0000 00000000 		.dword	0
 946      00000000 
 947 0008 00000000 		.dword	0
 947      00000000 
 948 0010 00000000 		.dword	_ZN6ThreadD1Ev
 948      00000000 
 949 0018 00000000 		.dword	_ZN6ThreadD0Ev
 949      00000000 
 950 0020 00000000 		.dword	_ZN6Thread3runEv
 950      00000000 
 951              		.weak	_ZTV9Semaphore
 952              		.section	.data.rel.ro.local._ZTV9Semaphore,"awG",@progbits,_ZTV9Semaphore,comdat
 953              		.align	3
 956              	_ZTV9Semaphore:
 957 0000 00000000 		.dword	0
 957      00000000 
 958 0008 00000000 		.dword	0
 958      00000000 
 959 0010 00000000 		.dword	_ZN9SemaphoreD1Ev
 959      00000000 
GAS LISTING /tmp/cc6JPqsM.s 			page 23


 960 0018 00000000 		.dword	_ZN9SemaphoreD0Ev
 960      00000000 
 961              		.text
 962              	.Letext0:
 963              		.file 5 "src/../h/../lib/hw.h"
 964              		.file 6 "src/../h/syscall_c.hpp"
 965              		.file 7 "src/../h/list.hpp"
 5154              		.align	3
 5157              	DW.ref.__gxx_personality_v0:
 5158 0000 00000000 		.dword	__gxx_personality_v0
 5158      00000000 
 5159              		.ident	"GCC: (Ubuntu 9.4.0-1ubuntu1~20.04) 9.4.0"
 5160              		.section	.note.GNU-stack,"",@progbits
GAS LISTING /tmp/cc6JPqsM.s 			page 24

