GAS LISTING /tmp/ccrUfUn4.s 			page 1


   1              		.file	"TCB.cpp"
   2              		.option pic
   3              		.option norelax
   4              		.text
   5              	.Ltext0:
   6              		.align	2
   7              		.globl	_ZN3TCB12createThreadEPFvPvES0_Ph
   9              	_ZN3TCB12createThreadEPFvPvES0_Ph:
  10              	.LFB57:
  11              		.file 1 "src/TCB.cpp"
   1:src/TCB.cpp   **** //
   2:src/TCB.cpp   **** // Created by os on 6/20/23.
   3:src/TCB.cpp   **** //
   4:src/TCB.cpp   **** 
   5:src/TCB.cpp   **** #include "../h/TCB.hpp"
   6:src/TCB.cpp   **** #include "../h/riscv.hpp"
   7:src/TCB.cpp   **** 
   8:src/TCB.cpp   **** 
   9:src/TCB.cpp   **** TCB* TCB::running = nullptr;
  10:src/TCB.cpp   **** uint64 TCB::timeSliceCounter = 0;
  11:src/TCB.cpp   **** 
  12:src/TCB.cpp   **** TCB* TCB::createThread(TCB::Body body, TCB::Argument argument, uint8* st) {
  12              		.loc 1 12 75
  13              		.cfi_startproc
  14              		.cfi_personality 0x9b,DW.ref.__gxx_personality_v0
  15              		.cfi_lsda 0x1b,.LLSDA57
  16              	.LVL0:
  17 0000 130101FD 		addi	sp,sp,-48
  18              		.cfi_def_cfa_offset 48
  19 0004 23341102 		sd	ra,40(sp)
  20 0008 23308102 		sd	s0,32(sp)
  21 000c 233C9100 		sd	s1,24(sp)
  22 0010 23382101 		sd	s2,16(sp)
  23 0014 23343101 		sd	s3,8(sp)
  24 0018 23304101 		sd	s4,0(sp)
  25              		.cfi_offset 1, -8
  26              		.cfi_offset 8, -16
  27              		.cfi_offset 9, -24
  28              		.cfi_offset 18, -32
  29              		.cfi_offset 19, -40
  30              		.cfi_offset 20, -48
  31 001c 13040103 		addi	s0,sp,48
  32              		.cfi_def_cfa 8, 0
  33 0020 93090500 		mv	s3,a0
  34 0024 138A0500 		mv	s4,a1
  35 0028 13090600 		mv	s2,a2
  13:src/TCB.cpp   ****     return new TCB(body, argument, TIME_SLICE, st);
  36              		.loc 1 13 5
  37              		.loc 1 13 50 is_stmt 0
  38 002c 13050006 		li	a0,96
  39              	.LVL1:
  40              	.LEHB0:
  41 0030 97000000 		call	_Znwm@plt
  41      E7800000 
  42              	.LVL2:
  43              	.LEHE0:
  44 0038 93040500 		mv	s1,a0
GAS LISTING /tmp/ccrUfUn4.s 			page 2


  45              	.LVL3:
  46              	.LBB23:
  47              	.LBB24:
  48              		.file 2 "src/../h/TCB.hpp"
   1:src/../h/TCB.hpp **** //
   2:src/../h/TCB.hpp **** // Created by os on 6/20/23.
   3:src/../h/TCB.hpp **** //
   4:src/../h/TCB.hpp **** 
   5:src/../h/TCB.hpp **** #ifndef PROJECT_BASE_V1_1_TCB_HPP
   6:src/../h/TCB.hpp **** #define PROJECT_BASE_V1_1_TCB_HPP
   7:src/../h/TCB.hpp **** 
   8:src/../h/TCB.hpp **** #include "../lib/hw.h"
   9:src/../h/TCB.hpp **** #include "syscall_c.hpp"
  10:src/../h/TCB.hpp **** #include "../h/Scheduler.hpp"
  11:src/../h/TCB.hpp **** #include "list.hpp"
  12:src/../h/TCB.hpp **** 
  13:src/../h/TCB.hpp **** // ideja za klasu preuzeta sa vezbi
  14:src/../h/TCB.hpp **** class TCB {
  15:src/../h/TCB.hpp **** public:
  16:src/../h/TCB.hpp ****     TCB* next;
  17:src/../h/TCB.hpp ****     enum State{FINISHED, RUNNING, BLOCKED, SLEEPING};
  18:src/../h/TCB.hpp ****     using Body = void(*)(void*);
  19:src/../h/TCB.hpp ****     using Argument = void*;
  20:src/../h/TCB.hpp **** 
  21:src/../h/TCB.hpp ****     static TCB* createThread(Body body, Argument argument, uint8* st);
  22:src/../h/TCB.hpp **** 
  23:src/../h/TCB.hpp ****     // Finished
  24:src/../h/TCB.hpp ****     bool isFinished() const{ return this->state == FINISHED; }
  25:src/../h/TCB.hpp ****     void setFinished(bool finished){ this->state = finished? FINISHED:RUNNING; }
  26:src/../h/TCB.hpp **** 
  27:src/../h/TCB.hpp ****     // Blocked
  28:src/../h/TCB.hpp ****     bool isBlocked() const { return this->state == BLOCKED; }
  29:src/../h/TCB.hpp ****     void setBlocked(bool blocked) { this->state = blocked?BLOCKED:RUNNING; }
  30:src/../h/TCB.hpp **** 
  31:src/../h/TCB.hpp ****     // Sleeping
  32:src/../h/TCB.hpp ****     bool isSleeping() const { return this->state == SLEEPING;}
  33:src/../h/TCB.hpp ****     void setSleeping(bool sleeping) { this->state = sleeping?SLEEPING:RUNNING; }
  34:src/../h/TCB.hpp **** 
  35:src/../h/TCB.hpp ****     // Running
  36:src/../h/TCB.hpp ****     bool isRunning(){ return this->state == RUNNING;}
  37:src/../h/TCB.hpp **** 
  38:src/../h/TCB.hpp ****     // Sleep time
  39:src/../h/TCB.hpp ****     void setSleepTime(int time1) { this->sleep_time = time1; }
  40:src/../h/TCB.hpp ****     int getSleepTime() { return this->sleep_time; }
  41:src/../h/TCB.hpp **** 
  42:src/../h/TCB.hpp ****     // System access
  43:src/../h/TCB.hpp ****     void setSystemAccessFlag(){ this->systemAccessFlag = true; }
  44:src/../h/TCB.hpp ****     bool getSystemAccessFlag(){ return this->systemAccessFlag; }
  45:src/../h/TCB.hpp **** 
  46:src/../h/TCB.hpp ****     uint64 getTimeSlice() const{
  47:src/../h/TCB.hpp ****         return t_slice;
  48:src/../h/TCB.hpp ****     }
  49:src/../h/TCB.hpp **** 
  50:src/../h/TCB.hpp ****     uint8* getStack() const{
  51:src/../h/TCB.hpp ****         return this->stack;
  52:src/../h/TCB.hpp ****     }
  53:src/../h/TCB.hpp **** 
GAS LISTING /tmp/ccrUfUn4.s 			page 3


  54:src/../h/TCB.hpp ****     void* getArgument(){
  55:src/../h/TCB.hpp ****         return argument;
  56:src/../h/TCB.hpp ****     }
  57:src/../h/TCB.hpp **** 
  58:src/../h/TCB.hpp ****     static void yield();
  59:src/../h/TCB.hpp **** 
  60:src/../h/TCB.hpp ****     static void join(TCB* thread);
  61:src/../h/TCB.hpp **** 
  62:src/../h/TCB.hpp ****     static void exit();
  63:src/../h/TCB.hpp **** 
  64:src/../h/TCB.hpp ****     static TCB* running;
  65:src/../h/TCB.hpp **** 
  66:src/../h/TCB.hpp ****     ~TCB(){
  67:src/../h/TCB.hpp ****         if(stack)
  68:src/../h/TCB.hpp ****             delete[] stack;
  69:src/../h/TCB.hpp ****     }
  70:src/../h/TCB.hpp **** 
  71:src/../h/TCB.hpp **** private:
  72:src/../h/TCB.hpp ****     struct Context{
  73:src/../h/TCB.hpp ****         uint64 ra;
  74:src/../h/TCB.hpp ****         uint64 sp;
  75:src/../h/TCB.hpp ****     };
  76:src/../h/TCB.hpp **** 
  77:src/../h/TCB.hpp ****     Body body;
  78:src/../h/TCB.hpp ****     Argument argument;
  79:src/../h/TCB.hpp ****     uint8* stack;
  80:src/../h/TCB.hpp ****     uint64 t_slice;
  81:src/../h/TCB.hpp ****     State state;
  82:src/../h/TCB.hpp ****     Context context;
  83:src/../h/TCB.hpp ****     int sleep_time;
  84:src/../h/TCB.hpp ****     List joinWaitList;
  85:src/../h/TCB.hpp ****     bool systemAccessFlag;
  86:src/../h/TCB.hpp **** 
  87:src/../h/TCB.hpp ****     TCB(Body body, Argument argument, uint64 timesl, uint8* st) :
  88:src/../h/TCB.hpp ****         next(0),
  89:src/../h/TCB.hpp ****         body(body),
  90:src/../h/TCB.hpp ****         argument(argument),
  91:src/../h/TCB.hpp ****         stack(body != nullptr ? st : nullptr),
  92:src/../h/TCB.hpp ****         t_slice(timesl),
  93:src/../h/TCB.hpp ****         state(RUNNING),
  94:src/../h/TCB.hpp ****         context({(uint64) &threadWrapper,
  95:src/../h/TCB.hpp ****                  stack != nullptr ? (uint64) &stack[DEFAULT_STACK_SIZE] : 0
  96:src/../h/TCB.hpp ****                 }),
  97:src/../h/TCB.hpp ****         systemAccessFlag(false)
  49              		.loc 2 97 31
  50 003c 23300500 		sd	zero,0(a0)
  51 0040 23343501 		sd	s3,8(a0)
  52 0044 23384501 		sd	s4,16(a0)
  91:src/../h/TCB.hpp ****         t_slice(timesl),
  53              		.loc 2 91 31
  54 0048 638A0904 		beqz	s3,.L10
  55              	.LVL4:
  56              	.L2:
  57              		.loc 2 97 31
  58 004c 23BC2401 		sd	s2,24(s1)
  59 0050 93072000 		li	a5,2
  60 0054 23B0F402 		sd	a5,32(s1)
GAS LISTING /tmp/ccrUfUn4.s 			page 4


  61 0058 93071000 		li	a5,1
  62 005c 23A4F402 		sw	a5,40(s1)
  63 0060 97070000 		lla	a5,_ZN3TCB13threadWrapperEv
  63      93870700 
  64 0068 23B8F402 		sd	a5,48(s1)
  95:src/../h/TCB.hpp ****                 }),
  65              		.loc 2 95 35
  66 006c 630C0902 		beqz	s2,.L7
  95:src/../h/TCB.hpp ****                 }),
  67              		.loc 2 95 46
  68 0070 37160000 		li	a2,4096
  69 0074 3309C900 		add	s2,s2,a2
  70              	.L3:
  71              		.loc 2 97 31
  72 0078 23BC2403 		sd	s2,56(s1)
  73              	.LVL5:
  74              	.LBB25:
  75              	.LBB26:
  76              		.file 3 "src/../h/list.hpp"
   1:src/../h/list.hpp **** //
   2:src/../h/list.hpp **** // Created by os on 5/13/23.
   3:src/../h/list.hpp **** //
   4:src/../h/list.hpp **** 
   5:src/../h/list.hpp **** #ifndef PROJECT_BASE_V1_1_LIST_HPP
   6:src/../h/list.hpp **** #define PROJECT_BASE_V1_1_LIST_HPP
   7:src/../h/list.hpp **** 
   8:src/../h/list.hpp **** //ideja za klasu je delimicno preuzeta sa online vezbi 7
   9:src/../h/list.hpp **** class TCB;
  10:src/../h/list.hpp **** 
  11:src/../h/list.hpp **** class List{
  12:src/../h/list.hpp ****     TCB* head;
  13:src/../h/list.hpp ****     TCB* tail;
  14:src/../h/list.hpp **** public:
  15:src/../h/list.hpp ****     List() : head(0), tail(0) {}
  77              		.loc 3 15 29
  78 007c 23B40404 		sd	zero,72(s1)
  79 0080 23B80404 		sd	zero,80(s1)
  80              	.LVL6:
  81              	.LBE26:
  82              	.LBE25:
  83              		.loc 2 97 31
  84 0084 238C0404 		sb	zero,88(s1)
  98:src/../h/TCB.hpp ****     {
  99:src/../h/TCB.hpp ****         if(body) Scheduler::put(this);
  85              		.loc 2 99 9 is_stmt 1
  86 0088 63800904 		beqz	s3,.L1
  87              		.loc 2 99 18
  88              		.loc 2 99 32 is_stmt 0
  89 008c 13850400 		mv	a0,s1
  90              	.LEHB1:
  91 0090 97000000 		call	_ZN9Scheduler3putEP3TCB@plt
  91      E7800000 
  92              	.LVL7:
  93              	.LEHE1:
  94 0098 6F000003 		j	.L1
  95              	.LVL8:
  96              	.L10:
GAS LISTING /tmp/ccrUfUn4.s 			page 5


  91:src/../h/TCB.hpp ****         t_slice(timesl),
  97              		.loc 2 91 31
  98 009c 13090000 		li	s2,0
  99              	.LVL9:
 100 00a0 6FF0DFFA 		j	.L2
 101              	.L7:
  95:src/../h/TCB.hpp ****                 }),
 102              		.loc 2 95 35
 103 00a4 13090000 		li	s2,0
 104 00a8 6FF01FFD 		j	.L3
 105              	.L8:
 106 00ac 13090500 		mv	s2,a0
 107              	.LBE24:
 108              	.LBE23:
 109              		.loc 1 13 50
 110 00b0 13850400 		mv	a0,s1
 111 00b4 97000000 		call	_ZdlPv@plt
 111      E7800000 
 112              	.LVL10:
 113 00bc 13050900 		mv	a0,s2
 114              	.LEHB2:
 115 00c0 97000000 		call	_Unwind_Resume@plt
 115      E7800000 
 116              	.LVL11:
 117              	.LEHE2:
 118              	.L1:
  14:src/TCB.cpp   **** }
 119              		.loc 1 14 1
 120 00c8 13850400 		mv	a0,s1
 121 00cc 83308102 		ld	ra,40(sp)
 122              		.cfi_restore 1
 123 00d0 03340102 		ld	s0,32(sp)
 124              		.cfi_restore 8
 125              		.cfi_def_cfa 2, 48
 126 00d4 83348101 		ld	s1,24(sp)
 127              		.cfi_restore 9
 128              	.LVL12:
 129 00d8 03390101 		ld	s2,16(sp)
 130              		.cfi_restore 18
 131 00dc 83398100 		ld	s3,8(sp)
 132              		.cfi_restore 19
 133              	.LVL13:
 134 00e0 033A0100 		ld	s4,0(sp)
 135              		.cfi_restore 20
 136              	.LVL14:
 137 00e4 13010103 		addi	sp,sp,48
 138              		.cfi_def_cfa_offset 0
 139 00e8 67800000 		jr	ra
 140              		.cfi_endproc
 141              	.LFE57:
 142              		.globl	__gxx_personality_v0
 143              		.section	.gcc_except_table,"a",@progbits
 144              	.LLSDA57:
 145 0000 FF       		.byte	0xff
 146 0001 FF       		.byte	0xff
 147 0002 03       		.byte	0x3
 148 0003 27       		.byte	0x27
GAS LISTING /tmp/ccrUfUn4.s 			page 6


 149 0004 00000000 		.4byte	.LEHB0-.LFB57
 150 0008 00000000 		.4byte	.LEHE0-.LEHB0
 151 000c 00000000 		.4byte	0
 152 0010 00       		.byte	0
 153 0011 00000000 		.4byte	.LEHB1-.LFB57
 154 0015 00000000 		.4byte	.LEHE1-.LEHB1
 155 0019 00000000 		.4byte	.L8-.LFB57
 156 001d 00       		.byte	0
 157 001e 00000000 		.4byte	.LEHB2-.LFB57
 158 0022 00000000 		.4byte	.LEHE2-.LEHB2
 159 0026 00000000 		.4byte	0
 160 002a 00       		.byte	0
 161              		.text
 163              		.align	2
 164              		.globl	_ZN3TCB5yieldEv
 166              	_ZN3TCB5yieldEv:
 167              	.LFB58:
  15:src/TCB.cpp   **** 
  16:src/TCB.cpp   **** void TCB::yield(){
 168              		.loc 1 16 18 is_stmt 1
 169              		.cfi_startproc
 170 00ec 130101FF 		addi	sp,sp,-16
 171              		.cfi_def_cfa_offset 16
 172 00f0 23341100 		sd	ra,8(sp)
 173 00f4 23308100 		sd	s0,0(sp)
 174              		.cfi_offset 1, -8
 175              		.cfi_offset 8, -16
 176 00f8 13040101 		addi	s0,sp,16
 177              		.cfi_def_cfa 8, 0
  17:src/TCB.cpp   ****     thread_dispatch();
 178              		.loc 1 17 5
 179              		.loc 1 17 20 is_stmt 0
 180 00fc 97000000 		call	_Z15thread_dispatchv@plt
 180      E7800000 
 181              	.LVL15:
  18:src/TCB.cpp   **** }
 182              		.loc 1 18 1
 183 0104 83308100 		ld	ra,8(sp)
 184              		.cfi_restore 1
 185 0108 03340100 		ld	s0,0(sp)
 186              		.cfi_restore 8
 187              		.cfi_def_cfa 2, 16
 188 010c 13010101 		addi	sp,sp,16
 189              		.cfi_def_cfa_offset 0
 190 0110 67800000 		jr	ra
 191              		.cfi_endproc
 192              	.LFE58:
 194              		.align	2
 195              		.globl	_ZN3TCB8dispatchEv
 197              	_ZN3TCB8dispatchEv:
 198              	.LFB59:
  19:src/TCB.cpp   **** 
  20:src/TCB.cpp   **** void TCB::dispatch(){
 199              		.loc 1 20 21 is_stmt 1
 200              		.cfi_startproc
 201 0114 130101FE 		addi	sp,sp,-32
 202              		.cfi_def_cfa_offset 32
GAS LISTING /tmp/ccrUfUn4.s 			page 7


 203 0118 233C1100 		sd	ra,24(sp)
 204 011c 23388100 		sd	s0,16(sp)
 205 0120 23349100 		sd	s1,8(sp)
 206              		.cfi_offset 1, -8
 207              		.cfi_offset 8, -16
 208              		.cfi_offset 9, -24
 209 0124 13040102 		addi	s0,sp,32
 210              		.cfi_def_cfa 8, 0
  21:src/TCB.cpp   ****      // The nullptr ifs in the code below are used in case the user forgot to add
  22:src/TCB.cpp   ****      // the main thread in the main function. Something like that is rare, but
  23:src/TCB.cpp   ****      // in case it happens this mechanism will prevent the total system crash.
  24:src/TCB.cpp   ****      // Such a scenario can also occur if all threads somehow get blocked and there
  25:src/TCB.cpp   ****      // is no idle thread in the system.
  26:src/TCB.cpp   ****      TCB* old = running;
 211              		.loc 1 26 6
 212              		.loc 1 26 11 is_stmt 0
 213 0128 97040000 		ld	s1,.LANCHOR0
 213      83B40400 
 214              	.LVL16:
  27:src/TCB.cpp   ****      if(old != nullptr) {
 215              		.loc 1 27 6 is_stmt 1
 216 0130 63880400 		beqz	s1,.L14
  28:src/TCB.cpp   ****          if (old->isRunning()) {
 217              		.loc 1 28 10
 218              	.LVL17:
 219              	.LBB27:
 220              	.LBB28:
  36:src/../h/TCB.hpp **** 
 221              		.loc 2 36 23
  36:src/../h/TCB.hpp **** 
 222              		.loc 2 36 36 is_stmt 0
 223 0134 03A78402 		lw	a4,40(s1)
 224              	.LVL18:
 225              	.LBE28:
 226              	.LBE27:
 227              		.loc 1 28 10
 228 0138 93071000 		li	a5,1
 229 013c 630CF702 		beq	a4,a5,.L16
 230              	.L14:
  29:src/TCB.cpp   ****              Scheduler::put(old);
  30:src/TCB.cpp   ****          }
  31:src/TCB.cpp   ****      }
  32:src/TCB.cpp   ****      running = Scheduler::get();
 231              		.loc 1 32 6 is_stmt 1
 232              		.loc 1 32 30 is_stmt 0
 233 0140 97000000 		call	_ZN9Scheduler3getEv@plt
 233      E7800000 
 234              	.LVL19:
 235              		.loc 1 32 14
 236 0148 97070000 		sd	a0,.LANCHOR0,a5
 236      23B0A700 
  33:src/TCB.cpp   **** 
  34:src/TCB.cpp   ****      //if(running != nullptr)
  35:src/TCB.cpp   ****         contextSwitch(&old->context, &running->context);
 237              		.loc 1 35 9 is_stmt 1
 238              		.loc 1 35 22 is_stmt 0
 239 0150 93050503 		addi	a1,a0,48
GAS LISTING /tmp/ccrUfUn4.s 			page 8


 240 0154 13850403 		addi	a0,s1,48
 241 0158 97000000 		call	_ZN3TCB13contextSwitchEPNS_7ContextES1_@plt
 241      E7800000 
 242              	.LVL20:
  36:src/TCB.cpp   **** }
 243              		.loc 1 36 1
 244 0160 83308101 		ld	ra,24(sp)
 245              		.cfi_remember_state
 246              		.cfi_restore 1
 247 0164 03340101 		ld	s0,16(sp)
 248              		.cfi_restore 8
 249              		.cfi_def_cfa 2, 32
 250 0168 83348100 		ld	s1,8(sp)
 251              		.cfi_restore 9
 252              	.LVL21:
 253 016c 13010102 		addi	sp,sp,32
 254              		.cfi_def_cfa_offset 0
 255 0170 67800000 		jr	ra
 256              	.LVL22:
 257              	.L16:
 258              		.cfi_restore_state
  29:src/TCB.cpp   ****              Scheduler::put(old);
 259              		.loc 1 29 14 is_stmt 1
  29:src/TCB.cpp   ****              Scheduler::put(old);
 260              		.loc 1 29 28 is_stmt 0
 261 0174 13850400 		mv	a0,s1
 262 0178 97000000 		call	_ZN9Scheduler3putEP3TCB@plt
 262      E7800000 
 263              	.LVL23:
 264 0180 6FF01FFC 		j	.L14
 265              		.cfi_endproc
 266              	.LFE59:
 268              		.align	2
 269              		.globl	_ZN3TCB4exitEv
 271              	_ZN3TCB4exitEv:
 272              	.LFB60:
  37:src/TCB.cpp   **** 
  38:src/TCB.cpp   **** void TCB::exit(){
 273              		.loc 1 38 17 is_stmt 1
 274              		.cfi_startproc
 275 0184 130101FF 		addi	sp,sp,-16
 276              		.cfi_def_cfa_offset 16
 277 0188 23341100 		sd	ra,8(sp)
 278 018c 23308100 		sd	s0,0(sp)
 279              		.cfi_offset 1, -8
 280              		.cfi_offset 8, -16
 281 0190 13040101 		addi	s0,sp,16
 282              		.cfi_def_cfa 8, 0
  39:src/TCB.cpp   ****     // Set its flag to because it's done
  40:src/TCB.cpp   ****     running->setFinished(true);
 283              		.loc 1 40 5
 284              		.loc 1 40 25 is_stmt 0
 285 0194 17050000 		ld	a0,.LANCHOR0
 285      03350500 
 286              	.LVL24:
 287              	.LBB29:
 288              	.LBB30:
GAS LISTING /tmp/ccrUfUn4.s 			page 9


  25:src/../h/TCB.hpp **** 
 289              		.loc 2 25 38 is_stmt 1
  25:src/../h/TCB.hpp **** 
 290              		.loc 2 25 50 is_stmt 0
 291 019c 23240502 		sw	zero,40(a0)
 292              	.LVL25:
 293              	.LBE30:
 294              	.LBE29:
  41:src/TCB.cpp   **** 
  42:src/TCB.cpp   ****     // Put in scheduler all the threads that were waiting for this one to end. (join function)
  43:src/TCB.cpp   ****     for(TCB* temp = running->joinWaitList.removeFirst(); temp; temp = running->joinWaitList.removeF
 295              		.loc 1 43 5 is_stmt 1
 296              	.LBB31:
 297              		.loc 1 43 54 is_stmt 0
 298 01a0 13058504 		addi	a0,a0,72
 299 01a4 97000000 		call	_ZN4List11removeFirstEv@plt
 299      E7800000 
 300              	.LVL26:
 301              	.L19:
 302              		.loc 1 43 58 is_stmt 1 discriminator 3
 303 01ac 63060502 		beqz	a0,.L18
  44:src/TCB.cpp   ****         temp->setSleeping(false);
 304              		.loc 1 44 9
 305              	.LVL27:
 306              	.LBB32:
 307              	.LBB33:
  33:src/../h/TCB.hpp **** 
 308              		.loc 2 33 39
  33:src/../h/TCB.hpp **** 
 309              		.loc 2 33 51 is_stmt 0
 310 01b0 93071000 		li	a5,1
 311 01b4 2324F502 		sw	a5,40(a0)
 312              	.LVL28:
 313              	.LBE33:
 314              	.LBE32:
  45:src/TCB.cpp   ****         Scheduler::put(temp);
 315              		.loc 1 45 9 is_stmt 1
 316              		.loc 1 45 23 is_stmt 0
 317 01b8 97000000 		call	_ZN9Scheduler3putEP3TCB@plt
 317      E7800000 
 318              	.LVL29:
  43:src/TCB.cpp   ****         temp->setSleeping(false);
 319              		.loc 1 43 5 is_stmt 1
  43:src/TCB.cpp   ****         temp->setSleeping(false);
 320              		.loc 1 43 104 is_stmt 0
 321 01c0 17050000 		ld	a0,.LANCHOR0
 321      03350500 
 322 01c8 13058504 		addi	a0,a0,72
 323 01cc 97000000 		call	_ZN4List11removeFirstEv@plt
 323      E7800000 
 324              	.LVL30:
  43:src/TCB.cpp   ****         temp->setSleeping(false);
 325              		.loc 1 43 5
 326 01d4 6FF09FFD 		j	.L19
 327              	.L18:
 328              	.LBE31:
  46:src/TCB.cpp   ****     }
GAS LISTING /tmp/ccrUfUn4.s 			page 10


  47:src/TCB.cpp   **** 
  48:src/TCB.cpp   ****     // Dispatch at the very end
  49:src/TCB.cpp   ****     yield();
 329              		.loc 1 49 5 is_stmt 1
 330              		.loc 1 49 10 is_stmt 0
 331 01d8 97000000 		call	_ZN3TCB5yieldEv
 331      E7800000 
 332              	.LVL31:
  50:src/TCB.cpp   **** }
 333              		.loc 1 50 1
 334 01e0 83308100 		ld	ra,8(sp)
 335              		.cfi_restore 1
 336 01e4 03340100 		ld	s0,0(sp)
 337              		.cfi_restore 8
 338              		.cfi_def_cfa 2, 16
 339 01e8 13010101 		addi	sp,sp,16
 340              		.cfi_def_cfa_offset 0
 341 01ec 67800000 		jr	ra
 342              		.cfi_endproc
 343              	.LFE60:
 345              		.align	2
 346              		.globl	_ZN3TCB13threadWrapperEv
 348              	_ZN3TCB13threadWrapperEv:
 349              	.LFB62:
  51:src/TCB.cpp   **** 
  52:src/TCB.cpp   **** void TCB::join(TCB* thread){
  53:src/TCB.cpp   ****     // Finished check
  54:src/TCB.cpp   ****     if(thread->isFinished()) return;
  55:src/TCB.cpp   **** 
  56:src/TCB.cpp   ****     // Running thread sleeps and will be awaken when TCB* thread argument finishes.
  57:src/TCB.cpp   ****     running->setSleeping(true);
  58:src/TCB.cpp   ****     thread->joinWaitList.addLast(running); // Current thread added to the wait list
  59:src/TCB.cpp   ****     yield(); // dispatch
  60:src/TCB.cpp   **** }
  61:src/TCB.cpp   **** 
  62:src/TCB.cpp   **** void TCB::threadWrapper(){
 350              		.loc 1 62 26 is_stmt 1
 351              		.cfi_startproc
 352 01f0 130101FF 		addi	sp,sp,-16
 353              		.cfi_def_cfa_offset 16
 354 01f4 23341100 		sd	ra,8(sp)
 355 01f8 23308100 		sd	s0,0(sp)
 356              		.cfi_offset 1, -8
 357              		.cfi_offset 8, -16
 358 01fc 13040101 		addi	s0,sp,16
 359              		.cfi_def_cfa 8, 0
  63:src/TCB.cpp   ****     // Kada se uradi dispatch, iz sistemskog moda ili nekog drugog se skace
  64:src/TCB.cpp   ****     // na threadWrapper nekog threada, ako se on prvi put startuje. To ce
  65:src/TCB.cpp   ****     // dovesti do toga da sistemske ili user privilegije ostanu kao stare (thread odakle se skocilo
  66:src/TCB.cpp   ****     // iako mi vise nismo tamo. popSppSpie obezbedjuje da se te privilegije promene i da budu onakv
  67:src/TCB.cpp   ****     // kakve treba da budu za ovaj thread koji sada startuje.
  68:src/TCB.cpp   ****     riscv::popSppSpie();
 360              		.loc 1 68 5
 361              		.loc 1 68 22 is_stmt 0
 362 0200 97000000 		call	_ZN5riscv10popSppSpieEv@plt
 362      E7800000 
 363              	.LVL32:
GAS LISTING /tmp/ccrUfUn4.s 			page 11


  69:src/TCB.cpp   **** 
  70:src/TCB.cpp   ****     // Start the thread (Glavni poziv funkcije koju zapravo obavlja thread)
  71:src/TCB.cpp   ****     running->body(running->argument);
 364              		.loc 1 71 5 is_stmt 1
 365              		.loc 1 71 14 is_stmt 0
 366 0208 97070000 		ld	a5,.LANCHOR0
 366      83B70700 
 367 0210 03B78700 		ld	a4,8(a5)
 368              		.loc 1 71 18
 369 0214 03B50701 		ld	a0,16(a5)
 370 0218 E7000700 		jalr	a4
 371              	.LVL33:
  72:src/TCB.cpp   **** 
  73:src/TCB.cpp   ****     // Call the exit of the thread at the end
  74:src/TCB.cpp   ****     exit();
 372              		.loc 1 74 5 is_stmt 1
 373              		.loc 1 74 9 is_stmt 0
 374 021c 97000000 		call	_ZN3TCB4exitEv
 374      E7800000 
 375              	.LVL34:
  75:src/TCB.cpp   **** }...
 376              		.loc 1 75 1
 377 0224 83308100 		ld	ra,8(sp)
 378              		.cfi_restore 1
 379 0228 03340100 		ld	s0,0(sp)
 380              		.cfi_restore 8
 381              		.cfi_def_cfa 2, 16
 382 022c 13010101 		addi	sp,sp,16
 383              		.cfi_def_cfa_offset 0
 384 0230 67800000 		jr	ra
 385              		.cfi_endproc
 386              	.LFE62:
 388              		.align	2
 389              		.globl	_ZN3TCB4joinEPS_
 391              	_ZN3TCB4joinEPS_:
 392              	.LFB61:
  52:src/TCB.cpp   **** void TCB::join(TCB* thread){
 393              		.loc 1 52 28 is_stmt 1
 394              		.cfi_startproc
 395              	.LVL35:
  54:src/TCB.cpp   ****     if(thread->isFinished()) return;
 396              		.loc 1 54 5
 397              	.LBB34:
 398              	.LBB35:
  24:src/../h/TCB.hpp ****     void setFinished(bool finished){ this->state = finished? FINISHED:RUNNING; }
 399              		.loc 2 24 30
  24:src/../h/TCB.hpp ****     void setFinished(bool finished){ this->state = finished? FINISHED:RUNNING; }
 400              		.loc 2 24 43 is_stmt 0
 401 0234 83278502 		lw	a5,40(a0)
 402              	.LVL36:
 403              	.LBE35:
 404              	.LBE34:
  54:src/TCB.cpp   ****     if(thread->isFinished()) return;
 405              		.loc 1 54 5
 406 0238 63940700 		bnez	a5,.L29
 407 023c 67800000 		ret
 408              	.L29:
GAS LISTING /tmp/ccrUfUn4.s 			page 12


  52:src/TCB.cpp   **** void TCB::join(TCB* thread){
 409              		.loc 1 52 28
 410 0240 130101FF 		addi	sp,sp,-16
 411              		.cfi_def_cfa_offset 16
 412 0244 23341100 		sd	ra,8(sp)
 413 0248 23308100 		sd	s0,0(sp)
 414              		.cfi_offset 1, -8
 415              		.cfi_offset 8, -16
 416 024c 13040101 		addi	s0,sp,16
 417              		.cfi_def_cfa 8, 0
  57:src/TCB.cpp   ****     running->setSleeping(true);
 418              		.loc 1 57 5 is_stmt 1
  57:src/TCB.cpp   ****     running->setSleeping(true);
 419              		.loc 1 57 25 is_stmt 0
 420 0250 97050000 		ld	a1,.LANCHOR0
 420      83B50500 
 421              	.LVL37:
 422              	.LBB36:
 423              	.LBB37:
  33:src/../h/TCB.hpp **** 
 424              		.loc 2 33 39 is_stmt 1
  33:src/../h/TCB.hpp **** 
 425              		.loc 2 33 51 is_stmt 0
 426 0258 93073000 		li	a5,3
 427 025c 23A4F502 		sw	a5,40(a1)
 428              	.LVL38:
 429              	.LBE37:
 430              	.LBE36:
  58:src/TCB.cpp   ****     thread->joinWaitList.addLast(running); // Current thread added to the wait list
 431              		.loc 1 58 5 is_stmt 1
  58:src/TCB.cpp   ****     thread->joinWaitList.addLast(running); // Current thread added to the wait list
 432              		.loc 1 58 33 is_stmt 0
 433 0260 13058504 		addi	a0,a0,72
 434              	.LVL39:
 435 0264 97000000 		call	_ZN4List7addLastEP3TCB@plt
 435      E7800000 
 436              	.LVL40:
  59:src/TCB.cpp   ****     yield(); // dispatch
 437              		.loc 1 59 5 is_stmt 1
  59:src/TCB.cpp   ****     yield(); // dispatch
 438              		.loc 1 59 10 is_stmt 0
 439 026c 97000000 		call	_ZN3TCB5yieldEv
 439      E7800000 
 440              	.LVL41:
  60:src/TCB.cpp   **** }
 441              		.loc 1 60 1
 442 0274 83308100 		ld	ra,8(sp)
 443              		.cfi_restore 1
 444 0278 03340100 		ld	s0,0(sp)
 445              		.cfi_restore 8
 446              		.cfi_def_cfa 2, 16
 447 027c 13010101 		addi	sp,sp,16
 448              		.cfi_def_cfa_offset 0
 449 0280 67800000 		jr	ra
 450              		.cfi_endproc
 451              	.LFE61:
 453              		.globl	_ZN3TCB16timeSliceCounterE
GAS LISTING /tmp/ccrUfUn4.s 			page 13


 454              		.globl	_ZN3TCB7runningE
 455              		.bss
 456              		.align	3
 457              		.set	.LANCHOR0,. + 0
 460              	_ZN3TCB7runningE:
 461 0000 00000000 		.zero	8
 461      00000000 
 464              	_ZN3TCB16timeSliceCounterE:
 465 0008 00000000 		.zero	8
 465      00000000 
 466              		.text
 467              	.Letext0:
 468              		.file 4 "src/../h/../lib/hw.h"
 469              		.file 5 "src/../h/../h/Scheduler.hpp"
 470              		.file 6 "src/../h/riscv.hpp"
 471              		.file 7 "src/../h/syscall_c.hpp"
 3620              		.align	3
 3623              	DW.ref.__gxx_personality_v0:
 3624 0000 00000000 		.dword	__gxx_personality_v0
 3624      00000000 
 3625              		.ident	"GCC: (Ubuntu 9.4.0-1ubuntu1~20.04) 9.4.0"
 3626              		.section	.note.GNU-stack,"",@progbits
GAS LISTING /tmp/ccrUfUn4.s 			page 14

